(dp1
S'amaVit1'
p2
(dp3
g2
I1009
sS'latCha1'
p4
I659
sS'criGri1'
p5
I628
sS'punNye1'
p6
I402
sS'odoRosDiv1'
p7
I690
sS'lepWed1'
p8
I551
sS'papAnu2'
p9
I697
sS'anoCar2'
p10
I507
sS'chiLan1'
p11
I687
sS'loxAfr3'
p12
I563
sS'rn6'
p13
I652
sS'eleEdw1'
p14
I684
sS'oreNil2'
p15
I403
sS'astMex1'
p16
I472
sS'eptFus1'
p17
I470
sS'vicPac2'
p18
I679
sS'geoFor1'
p19
I535
sS'oryLat2'
p20
I488
sS'sorAra2'
p21
I694
sS'gadMor1'
p22
I442
sS'eriEur2'
p23
I677
sS'oryCun2'
p24
I669
sS'micOch1'
p25
I669
sS'chlSab2'
p26
I699
sS'araMac1'
p27
I440
sS'octDeg1'
p28
I658
sS'dasNov3'
p29
I685
sS'taeGut2'
p30
I584
sS'mayZeb1'
p31
I400
sS'ficAlb2'
p32
I640
sS'panHod1'
p33
I689
sS'gorGor3'
p34
I696
sS'pteVam1'
p35
I689
sS'macEug2'
p36
I700
sS'pelSin1'
p37
I455
sS'xipMac1'
p38
I555
sS'anaPla1'
p39
I603
sS'ornAna1'
p40
I614
sS'colLiv1'
p41
I229
sS'sarHar1'
p42
I682
sS'takFla1'
p43
I417
sS'equCab2'
p44
I665
sS'myoLuc2'
p45
I472
sS'rheMac3'
p46
I695
sS'hg38'
p47
I696
sS'camFer1'
p48
I698
sS'cerSim1'
p49
I660
sS'macFas5'
p50
I696
sS'calJac3'
p51
I694
sS'melUnd1'
p52
I810
sS'neoBri1'
p53
I472
sS'conCri1'
p54
I359
sS'monDom5'
p55
I689
sS'pteAle1'
p56
I688
sS'oviAri3'
p57
I690
sS'danRer10'
p58
I509
sS'saiBol1'
p59
I695
sS'jacJac1'
p60
I672
sS'susScr3'
p61
I689
sS'canFam3'
p62
I682
sS'echTel2'
p63
I540
sS'capHir1'
p64
I690
sS'ponAbe2'
p65
I624
sS'pseHum1'
p66
I584
sS'hapBur1'
p67
I398
sS'mm10'
p68
I666
sS'xenTro7'
p69
I423
sS'falPer1'
p70
I718
sS'fr3'
p71
I572
sS'galGal4'
p72
I393
sS'gasAcu1'
p73
I437
sS'nomLeu3'
p74
I698
sS'zonAlb1'
p75
I494
sS'tupChi1'
p76
I676
sS'chrAsi1'
p77
I107
sS'cavPor3'
p78
I668
sS'panTro4'
p79
I698
sS'cheMyd1'
p80
I540
sS'triMan1'
p81
I666
sS'lepOcu1'
p82
I629
sS'ailMel1.GL192577'
p83
I690
sS'apaSpi1'
p84
I433
sS'mesAur1'
p85
I440
sS'tetNig2'
p86
I426
sS'bosTau8'
p87
I699
sS'musFur1'
p88
I691
sS'ochPri3'
p89
I655
sS'melGal1'
p90
I441
sS'petMar2'
p91
I437
sS'oryAfe1'
p92
I424
sS'hetGla2'
p93
I458
sS'turTru2'
p94
I695
sS'speTri2'
p95
I668
sS'allMis1'
p96
I549
sS'otoGar3'
p97
I685
sS'myoDav1'
p98
I501
sS'falChe1'
p99
I718
sS'felCat8'
p100
I689
sS'orcOrc1'
p101
I697
sS'chrPic2'
p102
I530
ssg4
(dp103
g2
I659
sg4
I1534
sg5
I793
sg6
I526
sg7
I1002
sg8
I814
sg9
I1095
sg10
I582
sg11
I1034
sg12
I847
sg13
I866
sg14
I946
sg15
I569
sg16
I715
sg17
I542
sg18
I981
sg19
I773
sg20
I661
sg21
I983
sg22
I571
sg23
I972
sg24
I1007
sg25
I965
sg26
I1114
sg27
I459
sg28
I959
sg29
I994
sg30
I753
sg31
I526
sg32
I681
sg33
I1052
sg34
I1112
sg35
I1058
sg36
I785
sg37
I624
sg38
I668
sg39
I516
sg40
I733
sg41
I247
sg42
I915
sg43
I531
sg44
I983
sg45
I520
sg46
I1116
sg47
I1112
sg48
I1015
sg49
I985
sg50
I1117
sg51
I1098
sg52
I636
sg53
I583
sg54
I403
sg55
I962
sg56
I1056
sg57
I1053
sg58
I640
sg59
I1096
sg60
I938
sg61
I1023
sg62
I1003
sg63
I735
sg64
I1056
sg65
I889
sg66
I690
sg67
I485
sg68
I848
sg69
I532
sg70
I684
sg71
I710
sg72
I427
sg73
I748
sg74
I1111
sg75
I633
sg76
I971
sg77
I163
sg78
I980
sg79
I1118
sg80
I620
sg81
I974
sg82
I914
sg83
I1005
sg84
I601
sg85
I654
sg86
I513
sg87
I1007
sg88
I987
sg89
I816
sg90
I476
sg91
I498
sg92
I674
sg93
I732
sg94
I1013
sg95
I1025
sg96
I753
sg97
I1015
sg98
I573
sg99
I613
sg100
I996
sg101
I1022
sg102
I580
ssg5
(dp104
g2
I628
sg4
I793
sg5
I1820
sg6
I476
sg7
I1376
sg8
I1252
sg9
I1287
sg10
I498
sg11
I1386
sg12
I1135
sg13
I1495
sg14
I1136
sg15
I499
sg16
I551
sg17
I619
sg18
I1315
sg19
I565
sg20
I548
sg21
I1062
sg22
I498
sg23
I1258
sg24
I1373
sg25
I1206
sg26
I1383
sg27
I383
sg28
I1325
sg29
I1282
sg30
I605
sg31
I493
sg32
I654
sg33
I1344
sg34
I1383
sg35
I1378
sg36
I860
sg37
I519
sg38
I617
sg39
I500
sg40
I825
sg41
I174
sg42
I862
sg43
I436
sg44
I1324
sg45
I604
sg46
I1378
sg47
I1385
sg48
I1354
sg49
I1322
sg50
I1379
sg51
I1361
sg52
I607
sg53
I558
sg54
I405
sg55
I965
sg56
I1369
sg57
I1346
sg58
I572
sg59
I1359
sg60
I1395
sg61
I1336
sg62
I1353
sg63
I917
sg64
I1357
sg65
I1187
sg66
I614
sg67
I457
sg68
I1432
sg69
I558
sg70
I644
sg71
I684
sg72
I362
sg73
I570
sg74
I1378
sg75
I472
sg76
I1256
sg77
I231
sg78
I1371
sg79
I1198
sg80
I571
sg81
I1274
sg82
I760
sg83
I1351
sg84
I510
sg85
I1207
sg86
I484
sg87
I1341
sg88
I1357
sg89
I1074
sg90
I414
sg91
I451
sg92
I931
sg93
I1086
sg94
I1357
sg95
I1408
sg96
I653
sg97
I1348
sg98
I657
sg99
I645
sg100
I1383
sg101
I1362
sg102
I538
ssg6
(dp105
g2
I402
sg4
I526
sg5
I476
sg6
I859
sg7
I543
sg8
I397
sg9
I566
sg10
I434
sg11
I547
sg12
I539
sg13
I519
sg14
I531
sg15
I818
sg16
I501
sg17
I451
sg18
I506
sg19
I392
sg20
I493
sg21
I527
sg22
I447
sg23
I534
sg24
I540
sg25
I536
sg26
I552
sg27
I391
sg28
I518
sg29
I529
sg30
I401
sg31
I834
sg32
I433
sg33
I536
sg34
I551
sg35
I546
sg36
I520
sg37
I463
sg38
I622
sg39
I391
sg40
I526
sg41
I208
sg42
I491
sg43
I415
sg44
I530
sg45
I491
sg46
I552
sg47
I554
sg48
I539
sg49
I535
sg50
I552
sg51
I546
sg52
I379
sg53
I624
sg54
I379
sg55
I536
sg56
I546
sg57
I537
sg58
I538
sg59
I549
sg60
I523
sg61
I547
sg62
I548
sg63
I535
sg64
I540
sg65
I439
sg66
I435
sg67
I749
sg68
I517
sg69
I471
sg70
I480
sg71
I524
sg72
I364
sg73
I561
sg74
I548
sg75
I397
sg76
I521
sg77
I176
sg78
I542
sg79
I550
sg80
I452
sg81
I537
sg82
I558
sg83
I546
sg84
I507
sg85
I395
sg86
I503
sg87
I536
sg88
I548
sg89
I532
sg90
I373
sg91
I416
sg92
I391
sg93
I530
sg94
I547
sg95
I538
sg96
I527
sg97
I554
sg98
I494
sg99
I478
sg100
I546
sg101
I551
sg102
I426
ssg7
(dp106
g2
I690
sg4
I1002
sg5
I1376
sg6
I543
sg7
I2288
sg8
I1943
sg9
I1768
sg10
I565
sg11
I1835
sg12
I1614
sg13
I1444
sg14
I1576
sg15
I560
sg16
I780
sg17
I728
sg18
I1871
sg19
I711
sg20
I619
sg21
I1484
sg22
I574
sg23
I1686
sg24
I1756
sg25
I1394
sg26
I1874
sg27
I449
sg28
I1721
sg29
I1759
sg30
I812
sg31
I556
sg32
I757
sg33
I1907
sg34
I1866
sg35
I1896
sg36
I961
sg37
I586
sg38
I668
sg39
I581
sg40
I943
sg41
I243
sg42
I1108
sg43
I501
sg44
I1886
sg45
I706
sg46
I1858
sg47
I1866
sg48
I1928
sg49
I1827
sg50
I1862
sg51
I1836
sg52
I668
sg53
I617
sg54
I491
sg55
I1265
sg56
I1907
sg57
I1892
sg58
I644
sg59
I1833
sg60
I1702
sg61
I1891
sg62
I2021
sg63
I1063
sg64
I1911
sg65
I1636
sg66
I868
sg67
I515
sg68
I1354
sg69
I618
sg70
I719
sg71
I762
sg72
I427
sg73
I740
sg74
I1853
sg75
I555
sg76
I1725
sg77
I285
sg78
I1773
sg79
I1667
sg80
I628
sg81
I1740
sg82
I1038
sg83
I2042
sg84
I585
sg85
I1285
sg86
I567
sg87
I1896
sg88
I2084
sg89
I1213
sg90
I472
sg91
I515
sg92
I1317
sg93
I1509
sg94
I1906
sg95
I1752
sg96
I794
sg97
I1819
sg98
I764
sg99
I718
sg100
I1998
sg101
I1918
sg102
I588
ssg8
(dp107
g2
I551
sg4
I814
sg5
I1252
sg6
I397
sg7
I1943
sg8
I2026
sg9
I1540
sg10
I419
sg11
I1593
sg12
I1404
sg13
I1213
sg14
I1374
sg15
I412
sg16
I636
sg17
I532
sg18
I1644
sg19
I556
sg20
I469
sg21
I1254
sg22
I426
sg23
I1482
sg24
I1531
sg25
I1177
sg26
I1638
sg27
I307
sg28
I1558
sg29
I1531
sg30
I643
sg31
I409
sg32
I619
sg33
I1671
sg34
I1636
sg35
I1661
sg36
I772
sg37
I425
sg38
I534
sg39
I429
sg40
I756
sg41
I86
sg42
I930
sg43
I349
sg44
I1664
sg45
I507
sg46
I1622
sg47
I1638
sg48
I1706
sg49
I1601
sg50
I1625
sg51
I1617
sg52
I530
sg53
I477
sg54
I323
sg55
I1068
sg56
I1670
sg57
I1652
sg58
I489
sg59
I1616
sg60
I1478
sg61
I1647
sg62
I1776
sg63
I856
sg64
I1670
sg65
I1476
sg66
I730
sg67
I372
sg68
I1136
sg69
I479
sg70
I578
sg71
I597
sg72
I283
sg73
I571
sg74
I1614
sg75
I406
sg76
I1560
sg77
I165
sg78
I1551
sg79
I1448
sg80
I470
sg81
I1520
sg82
I861
sg83
I1808
sg84
I430
sg85
I1178
sg86
I412
sg87
I1665
sg88
I1802
sg89
I984
sg90
I330
sg91
I372
sg92
I1235
sg93
I1293
sg94
I1681
sg95
I1529
sg96
I626
sg97
I1578
sg98
I562
sg99
I579
sg100
I1777
sg101
I1681
sg102
I437
ssg9
(dp108
g2
I697
sg4
I1095
sg5
I1287
sg6
I566
sg7
I1768
sg8
I1540
sg9
I4729
sg10
I565
sg11
I1782
sg12
I1553
sg13
I1402
sg14
I1598
sg15
I597
sg16
I905
sg17
I688
sg18
I1757
sg19
I865
sg20
I674
sg21
I1413
sg22
I585
sg23
I1600
sg24
I1683
sg25
I1355
sg26
I4071
sg27
I467
sg28
I1643
sg29
I1705
sg30
I875
sg31
I561
sg32
I813
sg33
I1785
sg34
I4056
sg35
I1771
sg36
I939
sg37
I651
sg38
I673
sg39
I582
sg40
I935
sg41
I249
sg42
I1262
sg43
I518
sg44
I1722
sg45
I675
sg46
I3458
sg47
I4084
sg48
I1787
sg49
I1703
sg50
I3935
sg51
I2869
sg52
I684
sg53
I613
sg54
I476
sg55
I1281
sg56
I1786
sg57
I1777
sg58
I651
sg59
I2931
sg60
I1629
sg61
I1794
sg62
I1741
sg63
I998
sg64
I1790
sg65
I3290
sg66
I984
sg67
I500
sg68
I1290
sg69
I607
sg70
I775
sg71
I776
sg72
I434
sg73
I795
sg74
I4050
sg75
I654
sg76
I1763
sg77
I239
sg78
I1672
sg79
I3703
sg80
I642
sg81
I1716
sg82
I1107
sg83
I1762
sg84
I640
sg85
I1208
sg86
I565
sg87
I1738
sg88
I1769
sg89
I1133
sg90
I489
sg91
I526
sg92
I1291
sg93
I1415
sg94
I1753
sg95
I1749
sg96
I785
sg97
I1807
sg98
I723
sg99
I710
sg100
I1751
sg101
I1758
sg102
I608
ssg10
(dp109
g2
I507
sg4
I582
sg5
I498
sg6
I434
sg7
I565
sg8
I419
sg9
I565
sg10
I838
sg11
I570
sg12
I569
sg13
I543
sg14
I551
sg15
I433
sg16
I469
sg17
I378
sg18
I556
sg19
I572
sg20
I504
sg21
I565
sg22
I396
sg23
I560
sg24
I559
sg25
I562
sg26
I569
sg27
I503
sg28
I548
sg29
I555
sg30
I566
sg31
I433
sg32
I529
sg33
I566
sg34
I567
sg35
I574
sg36
I520
sg37
I466
sg38
I514
sg39
I396
sg40
I531
sg41
I240
sg42
I531
sg43
I366
sg44
I563
sg45
I411
sg46
I568
sg47
I563
sg48
I568
sg49
I568
sg50
I568
sg51
I563
sg52
I480
sg53
I431
sg54
I337
sg55
I534
sg56
I574
sg57
I566
sg58
I423
sg59
I566
sg60
I550
sg61
I575
sg62
I564
sg63
I567
sg64
I566
sg65
I466
sg66
I535
sg67
I406
sg68
I549
sg69
I399
sg70
I425
sg71
I532
sg72
I408
sg73
I416
sg74
I566
sg75
I574
sg76
I547
sg77
I122
sg78
I567
sg79
I570
sg80
I450
sg81
I557
sg82
I566
sg83
I573
sg84
I485
sg85
I422
sg86
I389
sg87
I566
sg88
I566
sg89
I555
sg90
I415
sg91
I402
sg92
I430
sg93
I476
sg94
I577
sg95
I565
sg96
I481
sg97
I562
sg98
I425
sg99
I425
sg100
I565
sg101
I576
sg102
I416
ssg11
(dp110
g2
I687
sg4
I1034
sg5
I1386
sg6
I547
sg7
I1835
sg8
I1593
sg9
I1782
sg10
I570
sg11
I2406
sg12
I1591
sg13
I1499
sg14
I1579
sg15
I604
sg16
I816
sg17
I728
sg18
I1779
sg19
I766
sg20
I630
sg21
I1440
sg22
I575
sg23
I1636
sg24
I1795
sg25
I1445
sg26
I1885
sg27
I458
sg28
I1994
sg29
I1742
sg30
I826
sg31
I559
sg32
I773
sg33
I1853
sg34
I1889
sg35
I1822
sg36
I968
sg37
I621
sg38
I679
sg39
I563
sg40
I934
sg41
I250
sg42
I1105
sg43
I504
sg44
I1763
sg45
I707
sg46
I1866
sg47
I1893
sg48
I1823
sg49
I1746
sg50
I1870
sg51
I1850
sg52
I671
sg53
I622
sg54
I491
sg55
I1267
sg56
I1839
sg57
I1837
sg58
I639
sg59
I1876
sg60
I1733
sg61
I1786
sg62
I1801
sg63
I1023
sg64
I1853
sg65
I1626
sg66
I878
sg67
I519
sg68
I1352
sg69
I634
sg70
I764
sg71
I775
sg72
I428
sg73
I767
sg74
I1872
sg75
I608
sg76
I1697
sg77
I275
sg78
I2003
sg79
I1710
sg80
I623
sg81
I1720
sg82
I1044
sg83
I1806
sg84
I623
sg85
I1301
sg86
I554
sg87
I1806
sg88
I1811
sg89
I1212
sg90
I473
sg91
I528
sg92
I1320
sg93
I1706
sg94
I1830
sg95
I1856
sg96
I792
sg97
I1832
sg98
I755
sg99
I719
sg100
I1833
sg101
I1831
sg102
I586
ssg12
(dp111
g2
I563
sg4
I847
sg5
I1135
sg6
I539
sg7
I1614
sg8
I1404
sg9
I1553
sg10
I569
sg11
I1591
sg12
I1972
sg13
I1220
sg14
I1518
sg15
I554
sg16
I780
sg17
I625
sg18
I1598
sg19
I665
sg20
I603
sg21
I1255
sg22
I472
sg23
I1477
sg24
I1546
sg25
I1224
sg26
I1660
sg27
I449
sg28
I1516
sg29
I1628
sg30
I756
sg31
I553
sg32
I703
sg33
I1622
sg34
I1653
sg35
I1610
sg36
I787
sg37
I573
sg38
I605
sg39
I462
sg40
I795
sg41
I228
sg42
I934
sg43
I416
sg44
I1634
sg45
I658
sg46
I1639
sg47
I1655
sg48
I1645
sg49
I1616
sg50
I1645
sg51
I1642
sg52
I537
sg53
I528
sg54
I493
sg55
I1114
sg56
I1626
sg57
I1610
sg58
I518
sg59
I1639
sg60
I1498
sg61
I1590
sg62
I1629
sg63
I1104
sg64
I1623
sg65
I1437
sg66
I854
sg67
I519
sg68
I1135
sg69
I636
sg70
I570
sg71
I687
sg72
I404
sg73
I687
sg74
I1636
sg75
I539
sg76
I1522
sg77
I281
sg78
I1554
sg79
I1464
sg80
I514
sg81
I1830
sg82
I936
sg83
I1631
sg84
I575
sg85
I1247
sg86
I502
sg87
I1611
sg88
I1618
sg89
I994
sg90
I421
sg91
I439
sg92
I1455
sg93
I1489
sg94
I1619
sg95
I1555
sg96
I696
sg97
I1601
sg98
I651
sg99
I563
sg100
I1613
sg101
I1640
sg102
I478
ssg13
(dp112
g2
I652
sg4
I866
sg5
I1495
sg6
I519
sg7
I1444
sg8
I1213
sg9
I1402
sg10
I543
sg11
I1499
sg12
I1220
sg13
I1980
sg14
I1216
sg15
I555
sg16
I615
sg17
I705
sg18
I1379
sg19
I632
sg20
I592
sg21
I1122
sg22
I546
sg23
I1310
sg24
I1430
sg25
I1242
sg26
I1485
sg27
I439
sg28
I1412
sg29
I1375
sg30
I656
sg31
I533
sg32
I694
sg33
I1437
sg34
I1477
sg35
I1462
sg36
I915
sg37
I590
sg38
I663
sg39
I529
sg40
I895
sg41
I244
sg42
I907
sg43
I485
sg44
I1400
sg45
I671
sg46
I1473
sg47
I1479
sg48
I1415
sg49
I1397
sg50
I1475
sg51
I1468
sg52
I640
sg53
I606
sg54
I488
sg55
I1026
sg56
I1457
sg57
I1439
sg58
I622
sg59
I1462
sg60
I1484
sg61
I1398
sg62
I1418
sg63
I974
sg64
I1445
sg65
I1239
sg66
I654
sg67
I496
sg68
I1576
sg69
I606
sg70
I721
sg71
I734
sg72
I399
sg73
I666
sg74
I1477
sg75
I563
sg76
I1321
sg77
I270
sg78
I1448
sg79
I1301
sg80
I624
sg81
I1357
sg82
I813
sg83
I1418
sg84
I592
sg85
I1108
sg86
I546
sg87
I1408
sg88
I1455
sg89
I1165
sg90
I450
sg91
I511
sg92
I965
sg93
I1179
sg94
I1421
sg95
I1485
sg96
I689
sg97
I1422
sg98
I730
sg99
I689
sg100
I1421
sg101
I1428
sg102
I589
ssg14
(dp113
g2
I684
sg4
I946
sg5
I1136
sg6
I531
sg7
I1576
sg8
I1374
sg9
I1598
sg10
I551
sg11
I1579
sg12
I1518
sg13
I1216
sg14
I2098
sg15
I532
sg16
I767
sg17
I697
sg18
I1542
sg19
I710
sg20
I595
sg21
I1334
sg22
I552
sg23
I1443
sg24
I1538
sg25
I1289
sg26
I1613
sg27
I452
sg28
I1533
sg29
I1613
sg30
I812
sg31
I528
sg32
I760
sg33
I1573
sg34
I1624
sg35
I1555
sg36
I912
sg37
I568
sg38
I656
sg39
I566
sg40
I896
sg41
I239
sg42
I1107
sg43
I483
sg44
I1565
sg45
I678
sg46
I1606
sg47
I1622
sg48
I1598
sg49
I1543
sg50
I1611
sg51
I1605
sg52
I649
sg53
I589
sg54
I481
sg55
I1234
sg56
I1572
sg57
I1567
sg58
I619
sg59
I1607
sg60
I1472
sg61
I1548
sg62
I1574
sg63
I963
sg64
I1573
sg65
I1478
sg66
I857
sg67
I496
sg68
I1148
sg69
I593
sg70
I693
sg71
I739
sg72
I423
sg73
I700
sg74
I1616
sg75
I557
sg76
I1512
sg77
I257
sg78
I1549
sg79
I1543
sg80
I610
sg81
I1706
sg82
I1033
sg83
I1568
sg84
I563
sg85
I1098
sg86
I541
sg87
I1561
sg88
I1597
sg89
I1025
sg90
I473
sg91
I511
sg92
I1349
sg93
I1326
sg94
I1584
sg95
I1515
sg96
I750
sg97
I1545
sg98
I723
sg99
I694
sg100
I1562
sg101
I1584
sg102
I583
ssg15
(dp114
g2
I403
sg4
I569
sg5
I499
sg6
I818
sg7
I560
sg8
I412
sg9
I597
sg10
I433
sg11
I604
sg12
I554
sg13
I555
sg14
I532
sg15
I962
sg16
I575
sg17
I464
sg18
I524
sg19
I446
sg20
I541
sg21
I544
sg22
I450
sg23
I543
sg24
I557
sg25
I561
sg26
I617
sg27
I394
sg28
I541
sg29
I548
sg30
I404
sg31
I833
sg32
I439
sg33
I582
sg34
I617
sg35
I591
sg36
I529
sg37
I519
sg38
I642
sg39
I392
sg40
I537
sg41
I208
sg42
I478
sg43
I428
sg44
I548
sg45
I504
sg46
I614
sg47
I618
sg48
I556
sg49
I553
sg50
I614
sg51
I614
sg52
I377
sg53
I626
sg54
I382
sg55
I547
sg56
I590
sg57
I585
sg58
I539
sg59
I612
sg60
I542
sg61
I564
sg62
I567
sg63
I552
sg64
I588
sg65
I454
sg66
I442
sg67
I759
sg68
I538
sg69
I478
sg70
I547
sg71
I525
sg72
I366
sg73
I645
sg74
I614
sg75
I451
sg76
I528
sg77
I192
sg78
I563
sg79
I616
sg80
I468
sg81
I553
sg82
I557
sg83
I564
sg84
I572
sg85
I406
sg86
I517
sg87
I554
sg88
I565
sg89
I552
sg90
I375
sg91
I417
sg92
I407
sg93
I550
sg94
I565
sg95
I605
sg96
I535
sg97
I575
sg98
I509
sg99
I493
sg100
I563
sg101
I569
sg102
I428
ssg16
(dp115
g2
I472
sg4
I715
sg5
I551
sg6
I501
sg7
I780
sg8
I636
sg9
I905
sg10
I469
sg11
I816
sg12
I780
sg13
I615
sg14
I767
sg15
I575
sg16
I1609
sg17
I453
sg18
I779
sg19
I728
sg20
I706
sg21
I803
sg22
I437
sg23
I774
sg24
I786
sg25
I775
sg26
I921
sg27
I377
sg28
I780
sg29
I789
sg30
I665
sg31
I509
sg32
I620
sg33
I817
sg34
I922
sg35
I813
sg36
I569
sg37
I516
sg38
I600
sg39
I337
sg40
I583
sg41
I196
sg42
I768
sg43
I423
sg44
I794
sg45
I483
sg46
I909
sg47
I923
sg48
I808
sg49
I772
sg50
I909
sg51
I928
sg52
I455
sg53
I495
sg54
I348
sg55
I784
sg56
I816
sg57
I818
sg58
I500
sg59
I917
sg60
I760
sg61
I839
sg62
I774
sg63
I631
sg64
I821
sg65
I776
sg66
I728
sg67
I509
sg68
I597
sg69
I463
sg70
I523
sg71
I621
sg72
I364
sg73
I742
sg74
I936
sg75
I583
sg76
I772
sg77
I170
sg78
I769
sg79
I921
sg80
I403
sg81
I792
sg82
I938
sg83
I791
sg84
I507
sg85
I637
sg86
I487
sg87
I781
sg88
I781
sg89
I588
sg90
I358
sg91
I385
sg92
I646
sg93
I693
sg94
I796
sg95
I803
sg96
I551
sg97
I820
sg98
I480
sg99
I439
sg100
I787
sg101
I798
sg102
I385
ssg17
(dp116
g2
I470
sg4
I542
sg5
I619
sg6
I451
sg7
I728
sg8
I532
sg9
I688
sg10
I378
sg11
I728
sg12
I625
sg13
I705
sg14
I697
sg15
I464
sg16
I453
sg17
I874
sg18
I695
sg19
I438
sg20
I411
sg21
I718
sg22
I474
sg23
I721
sg24
I726
sg25
I709
sg26
I714
sg27
I408
sg28
I721
sg29
I712
sg30
I463
sg31
I463
sg32
I508
sg33
I735
sg34
I715
sg35
I732
sg36
I683
sg37
I451
sg38
I466
sg39
I380
sg40
I642
sg41
I234
sg42
I623
sg43
I404
sg44
I736
sg45
I775
sg46
I711
sg47
I712
sg48
I734
sg49
I723
sg50
I712
sg51
I707
sg52
I445
sg53
I490
sg54
I504
sg55
I676
sg56
I732
sg57
I736
sg58
I515
sg59
I709
sg60
I720
sg61
I732
sg62
I731
sg63
I625
sg64
I735
sg65
I619
sg66
I465
sg67
I455
sg68
I700
sg69
I471
sg70
I549
sg71
I502
sg72
I392
sg73
I510
sg74
I713
sg75
I406
sg76
I687
sg77
I238
sg78
I727
sg79
I714
sg80
I485
sg81
I707
sg82
I591
sg83
I732
sg84
I494
sg85
I465
sg86
I466
sg87
I729
sg88
I737
sg89
I719
sg90
I432
sg91
I479
sg92
I446
sg93
I613
sg94
I737
sg95
I707
sg96
I549
sg97
I727
sg98
I769
sg99
I550
sg100
I736
sg101
I739
sg102
I473
ssg18
(dp117
g2
I679
sg4
I981
sg5
I1315
sg6
I506
sg7
I1871
sg8
I1644
sg9
I1757
sg10
I556
sg11
I1779
sg12
I1598
sg13
I1379
sg14
I1542
sg15
I524
sg16
I779
sg17
I695
sg18
I2253
sg19
I728
sg20
I607
sg21
I1444
sg22
I560
sg23
I1674
sg24
I1745
sg25
I1374
sg26
I1850
sg27
I457
sg28
I1686
sg29
I1730
sg30
I833
sg31
I517
sg32
I761
sg33
I1942
sg34
I1850
sg35
I1855
sg36
I923
sg37
I567
sg38
I645
sg39
I559
sg40
I923
sg41
I251
sg42
I1099
sg43
I508
sg44
I1819
sg45
I671
sg46
I1827
sg47
I1853
sg48
I2128
sg49
I1783
sg50
I1830
sg51
I1820
sg52
I656
sg53
I595
sg54
I459
sg55
I1248
sg56
I1873
sg57
I1924
sg58
I619
sg59
I1828
sg60
I1646
sg61
I1888
sg62
I1861
sg63
I1010
sg64
I1946
sg65
I1609
sg66
I857
sg67
I478
sg68
I1305
sg69
I594
sg70
I694
sg71
I742
sg72
I429
sg73
I725
sg74
I1824
sg75
I566
sg76
I1749
sg77
I271
sg78
I1740
sg79
I1640
sg80
I609
sg81
I1741
sg82
I1041
sg83
I1875
sg84
I556
sg85
I1236
sg86
I534
sg87
I1940
sg88
I1860
sg89
I1186
sg90
I483
sg91
I501
sg92
I1286
sg93
I1481
sg94
I1967
sg95
I1714
sg96
I770
sg97
I1793
sg98
I726
sg99
I695
sg100
I1874
sg101
I1965
sg102
I569
ssg19
(dp118
g2
I535
sg4
I773
sg5
I565
sg6
I392
sg7
I711
sg8
I556
sg9
I865
sg10
I572
sg11
I766
sg12
I665
sg13
I632
sg14
I710
sg15
I446
sg16
I728
sg17
I438
sg18
I728
sg19
I1378
sg20
I576
sg21
I735
sg22
I380
sg23
I716
sg24
I723
sg25
I726
sg26
I862
sg27
I547
sg28
I695
sg29
I728
sg30
I943
sg31
I395
sg32
I851
sg33
I772
sg34
I865
sg35
I765
sg36
I544
sg37
I567
sg38
I480
sg39
I389
sg40
I563
sg41
I305
sg42
I703
sg43
I366
sg44
I732
sg45
I422
sg46
I855
sg47
I865
sg48
I727
sg49
I729
sg50
I854
sg51
I860
sg52
I507
sg53
I389
sg54
I344
sg55
I706
sg56
I766
sg57
I771
sg58
I421
sg59
I856
sg60
I718
sg61
I759
sg62
I713
sg63
I572
sg64
I772
sg65
I665
sg66
I764
sg67
I363
sg68
I620
sg69
I386
sg70
I581
sg71
I534
sg72
I469
sg73
I575
sg74
I864
sg75
I956
sg76
I702
sg77
I131
sg78
I718
sg79
I860
sg80
I472
sg81
I724
sg82
I744
sg83
I719
sg84
I548
sg85
I501
sg86
I361
sg87
I724
sg88
I716
sg89
I593
sg90
I512
sg91
I439
sg92
I514
sg93
I551
sg94
I729
sg95
I758
sg96
I627
sg97
I747
sg98
I470
sg99
I465
sg100
I723
sg101
I731
sg102
I438
ssg20
(dp119
g2
I488
sg4
I661
sg5
I548
sg6
I493
sg7
I619
sg8
I469
sg9
I674
sg10
I504
sg11
I630
sg12
I603
sg13
I592
sg14
I595
sg15
I541
sg16
I706
sg17
I411
sg18
I607
sg19
I576
sg20
I1085
sg21
I607
sg22
I459
sg23
I615
sg24
I626
sg25
I601
sg26
I670
sg27
I392
sg28
I584
sg29
I613
sg30
I528
sg31
I496
sg32
I496
sg33
I642
sg34
I667
sg35
I650
sg36
I540
sg37
I549
sg38
I595
sg39
I379
sg40
I565
sg41
I195
sg42
I554
sg43
I479
sg44
I616
sg45
I436
sg46
I665
sg47
I671
sg48
I615
sg49
I611
sg50
I665
sg51
I660
sg52
I465
sg53
I471
sg54
I342
sg55
I598
sg56
I652
sg57
I642
sg58
I470
sg59
I660
sg60
I604
sg61
I624
sg62
I614
sg63
I607
sg64
I644
sg65
I527
sg66
I492
sg67
I470
sg68
I590
sg69
I425
sg70
I458
sg71
I604
sg72
I368
sg73
I643
sg74
I671
sg75
I544
sg76
I599
sg77
I135
sg78
I602
sg79
I666
sg80
I441
sg81
I607
sg82
I693
sg83
I616
sg84
I499
sg85
I465
sg86
I480
sg87
I612
sg88
I614
sg89
I569
sg90
I364
sg91
I391
sg92
I456
sg93
I508
sg94
I617
sg95
I633
sg96
I491
sg97
I620
sg98
I434
sg99
I402
sg100
I617
sg101
I617
sg102
I410
ssg21
(dp120
g2
I694
sg4
I983
sg5
I1062
sg6
I527
sg7
I1484
sg8
I1254
sg9
I1413
sg10
I565
sg11
I1440
sg12
I1255
sg13
I1122
sg14
I1334
sg15
I544
sg16
I803
sg17
I718
sg18
I1444
sg19
I735
sg20
I607
sg21
I1784
sg22
I563
sg23
I1470
sg24
I1384
sg25
I1354
sg26
I1467
sg27
I454
sg28
I1380
sg29
I1392
sg30
I835
sg31
I540
sg32
I793
sg33
I1486
sg34
I1468
sg35
I1467
sg36
I930
sg37
I577
sg38
I669
sg39
I567
sg40
I932
sg41
I242
sg42
I1112
sg43
I490
sg44
I1451
sg45
I699
sg46
I1459
sg47
I1469
sg48
I1495
sg49
I1440
sg50
I1459
sg51
I1443
sg52
I672
sg53
I607
sg54
I491
sg55
I1244
sg56
I1483
sg57
I1479
sg58
I643
sg59
I1446
sg60
I1330
sg61
I1489
sg62
I1468
sg63
I975
sg64
I1487
sg65
I1319
sg66
I886
sg67
I504
sg68
I1124
sg69
I636
sg70
I721
sg71
I751
sg72
I421
sg73
I729
sg74
I1473
sg75
I558
sg76
I1376
sg77
I280
sg78
I1410
sg79
I1468
sg80
I621
sg81
I1374
sg82
I1060
sg83
I1501
sg84
I574
sg85
I984
sg86
I561
sg87
I1484
sg88
I1478
sg89
I1043
sg90
I468
sg91
I509
sg92
I1068
sg93
I1152
sg94
I1475
sg95
I1377
sg96
I797
sg97
I1443
sg98
I756
sg99
I722
sg100
I1478
sg101
I1477
sg102
I590
ssg22
(dp121
g2
I442
sg4
I571
sg5
I498
sg6
I447
sg7
I574
sg8
I426
sg9
I585
sg10
I396
sg11
I575
sg12
I472
sg13
I546
sg14
I552
sg15
I450
sg16
I437
sg17
I474
sg18
I560
sg19
I380
sg20
I459
sg21
I563
sg22
I862
sg23
I551
sg24
I573
sg25
I553
sg26
I583
sg27
I394
sg28
I556
sg29
I562
sg30
I410
sg31
I453
sg32
I390
sg33
I572
sg34
I585
sg35
I581
sg36
I559
sg37
I420
sg38
I563
sg39
I404
sg40
I548
sg41
I207
sg42
I537
sg43
I496
sg44
I562
sg45
I482
sg46
I587
sg47
I585
sg48
I577
sg49
I559
sg50
I586
sg51
I580
sg52
I434
sg53
I556
sg54
I362
sg55
I559
sg56
I581
sg57
I575
sg58
I597
sg59
I579
sg60
I550
sg61
I575
sg62
I566
sg63
I464
sg64
I575
sg65
I508
sg66
I379
sg67
I447
sg68
I540
sg69
I423
sg70
I475
sg71
I531
sg72
I377
sg73
I516
sg74
I581
sg75
I381
sg76
I561
sg77
I139
sg78
I579
sg79
I586
sg80
I475
sg81
I553
sg82
I571
sg83
I570
sg84
I424
sg85
I348
sg86
I507
sg87
I574
sg88
I576
sg89
I567
sg90
I380
sg91
I428
sg92
I332
sg93
I458
sg94
I581
sg95
I552
sg96
I460
sg97
I579
sg98
I491
sg99
I477
sg100
I577
sg101
I579
sg102
I459
ssg23
(dp122
g2
I677
sg4
I972
sg5
I1258
sg6
I534
sg7
I1686
sg8
I1482
sg9
I1600
sg10
I560
sg11
I1636
sg12
I1477
sg13
I1310
sg14
I1443
sg15
I543
sg16
I774
sg17
I721
sg18
I1674
sg19
I716
sg20
I615
sg21
I1470
sg22
I551
sg23
I2096
sg24
I1610
sg25
I1357
sg26
I1682
sg27
I459
sg28
I1573
sg29
I1597
sg30
I816
sg31
I546
sg32
I766
sg33
I1697
sg34
I1674
sg35
I1727
sg36
I939
sg37
I576
sg38
I654
sg39
I556
sg40
I920
sg41
I249
sg42
I1072
sg43
I477
sg44
I1685
sg45
I708
sg46
I1669
sg47
I1680
sg48
I1726
sg49
I1674
sg50
I1674
sg51
I1649
sg52
I659
sg53
I598
sg54
I499
sg55
I1220
sg56
I1741
sg57
I1685
sg58
I622
sg59
I1650
sg60
I1541
sg61
I1670
sg62
I1692
sg63
I1034
sg64
I1694
sg65
I1461
sg66
I858
sg67
I509
sg68
I1288
sg69
I625
sg70
I699
sg71
I728
sg72
I431
sg73
I694
sg74
I1685
sg75
I559
sg76
I1587
sg77
I268
sg78
I1597
sg79
I1500
sg80
I614
sg81
I1589
sg82
I1034
sg83
I1725
sg84
I578
sg85
I1190
sg86
I543
sg87
I1686
sg88
I1704
sg89
I1133
sg90
I482
sg91
I507
sg92
I1205
sg93
I1361
sg94
I1710
sg95
I1594
sg96
I781
sg97
I1628
sg98
I753
sg99
I700
sg100
I1699
sg101
I1708
sg102
I588
ssg24
(dp123
g2
I669
sg4
I1007
sg5
I1373
sg6
I540
sg7
I1756
sg8
I1531
sg9
I1683
sg10
I559
sg11
I1795
sg12
I1546
sg13
I1430
sg14
I1538
sg15
I557
sg16
I786
sg17
I726
sg18
I1745
sg19
I723
sg20
I626
sg21
I1384
sg22
I573
sg23
I1610
sg24
I2176
sg25
I1392
sg26
I1782
sg27
I459
sg28
I1691
sg29
I1712
sg30
I827
sg31
I554
sg32
I765
sg33
I1764
sg34
I1785
sg35
I1752
sg36
I957
sg37
I585
sg38
I676
sg39
I551
sg40
I935
sg41
I248
sg42
I1101
sg43
I510
sg44
I1728
sg45
I707
sg46
I1781
sg47
I1787
sg48
I1785
sg49
I1710
sg50
I1783
sg51
I1758
sg52
I648
sg53
I622
sg54
I494
sg55
I1271
sg56
I1762
sg57
I1753
sg58
I643
sg59
I1758
sg60
I1678
sg61
I1734
sg62
I1748
sg63
I1037
sg64
I1766
sg65
I1556
sg66
I842
sg67
I519
sg68
I1355
sg69
I618
sg70
I700
sg71
I778
sg72
I431
sg73
I738
sg74
I1768
sg75
I561
sg76
I1649
sg77
I280
sg78
I1754
sg79
I1592
sg80
I630
sg81
I1695
sg82
I1031
sg83
I1744
sg84
I585
sg85
I1268
sg86
I561
sg87
I1750
sg88
I1751
sg89
I1282
sg90
I482
sg91
I532
sg92
I1273
sg93
I1471
sg94
I1781
sg95
I1683
sg96
I786
sg97
I1752
sg98
I768
sg99
I697
sg100
I1746
sg101
I1787
sg102
I597
ssg25
(dp124
g2
I669
sg4
I965
sg5
I1206
sg6
I536
sg7
I1394
sg8
I1177
sg9
I1355
sg10
I562
sg11
I1445
sg12
I1224
sg13
I1242
sg14
I1289
sg15
I561
sg16
I775
sg17
I709
sg18
I1374
sg19
I726
sg20
I601
sg21
I1354
sg22
I553
sg23
I1357
sg24
I1392
sg25
I1765
sg26
I1403
sg27
I453
sg28
I1392
sg29
I1347
sg30
I811
sg31
I554
sg32
I778
sg33
I1413
sg34
I1397
sg35
I1399
sg36
I937
sg37
I575
sg38
I671
sg39
I545
sg40
I920
sg41
I248
sg42
I1068
sg43
I490
sg44
I1380
sg45
I694
sg46
I1400
sg47
I1398
sg48
I1410
sg49
I1378
sg50
I1399
sg51
I1392
sg52
I654
sg53
I618
sg54
I488
sg55
I1221
sg56
I1408
sg57
I1415
sg58
I639
sg59
I1389
sg60
I1407
sg61
I1397
sg62
I1398
sg63
I953
sg64
I1419
sg65
I1242
sg66
I853
sg67
I519
sg68
I1257
sg69
I611
sg70
I696
sg71
I756
sg72
I423
sg73
I725
sg74
I1395
sg75
I544
sg76
I1328
sg77
I277
sg78
I1431
sg79
I1398
sg80
I623
sg81
I1344
sg82
I1003
sg83
I1395
sg84
I571
sg85
I1096
sg86
I556
sg87
I1412
sg88
I1402
sg89
I1046
sg90
I472
sg91
I514
sg92
I1039
sg93
I1171
sg94
I1405
sg95
I1418
sg96
I788
sg97
I1395
sg98
I750
sg99
I697
sg100
I1422
sg101
I1407
sg102
I590
ssg26
(dp125
g2
I699
sg4
I1114
sg5
I1383
sg6
I552
sg7
I1874
sg8
I1638
sg9
I4071
sg10
I569
sg11
I1885
sg12
I1660
sg13
I1485
sg14
I1613
sg15
I617
sg16
I921
sg17
I714
sg18
I1850
sg19
I862
sg20
I670
sg21
I1467
sg22
I583
sg23
I1682
sg24
I1782
sg25
I1403
sg26
I4722
sg27
I465
sg28
I1744
sg29
I1800
sg30
I872
sg31
I567
sg32
I826
sg33
I1895
sg34
I4291
sg35
I1885
sg36
I966
sg37
I650
sg38
I688
sg39
I587
sg40
I960
sg41
I251
sg42
I1218
sg43
I530
sg44
I1829
sg45
I701
sg46
I3758
sg47
I4327
sg48
I1894
sg49
I1805
sg50
I4223
sg51
I2989
sg52
I686
sg53
I627
sg54
I488
sg55
I1324
sg56
I1899
sg57
I1886
sg58
I655
sg59
I3045
sg60
I1711
sg61
I1909
sg62
I1848
sg63
I1056
sg64
I1900
sg65
I3470
sg66
I969
sg67
I518
sg68
I1364
sg69
I633
sg70
I804
sg71
I778
sg72
I430
sg73
I810
sg74
I4292
sg75
I654
sg76
I1766
sg77
I284
sg78
I1762
sg79
I3864
sg80
I642
sg81
I1822
sg82
I1100
sg83
I1869
sg84
I653
sg85
I1289
sg86
I578
sg87
I1847
sg88
I1885
sg89
I1202
sg90
I485
sg91
I521
sg92
I1364
sg93
I1513
sg94
I1871
sg95
I1847
sg96
I800
sg97
I1920
sg98
I749
sg99
I737
sg100
I1852
sg101
I1880
sg102
I606
ssg27
(dp126
g2
I440
sg4
I459
sg5
I383
sg6
I391
sg7
I449
sg8
I307
sg9
I467
sg10
I503
sg11
I458
sg12
I449
sg13
I439
sg14
I452
sg15
I394
sg16
I377
sg17
I408
sg18
I457
sg19
I547
sg20
I392
sg21
I454
sg22
I394
sg23
I459
sg24
I459
sg25
I453
sg26
I465
sg27
I728
sg28
I443
sg29
I453
sg30
I572
sg31
I394
sg32
I499
sg33
I455
sg34
I467
sg35
I458
sg36
I430
sg37
I430
sg38
I410
sg39
I394
sg40
I441
sg41
I301
sg42
I431
sg43
I366
sg44
I455
sg45
I441
sg46
I466
sg47
I465
sg48
I459
sg49
I454
sg50
I466
sg51
I457
sg52
I394
sg53
I414
sg54
I353
sg55
I433
sg56
I458
sg57
I457
sg58
I421
sg59
I461
sg60
I449
sg61
I464
sg62
I449
sg63
I442
sg64
I459
sg65
I387
sg66
I493
sg67
I387
sg68
I441
sg69
I383
sg70
I426
sg71
I428
sg72
I490
sg73
I386
sg74
I469
sg75
I553
sg76
I448
sg77
I115
sg78
I456
sg79
I465
sg80
I439
sg81
I456
sg82
I463
sg83
I458
sg84
I462
sg85
I315
sg86
I373
sg87
I454
sg88
I456
sg89
I459
sg90
I500
sg91
I403
sg92
I309
sg93
I430
sg94
I461
sg95
I455
sg96
I448
sg97
I466
sg98
I448
sg99
I429
sg100
I453
sg101
I462
sg102
I430
ssg28
(dp127
g2
I658
sg4
I959
sg5
I1325
sg6
I518
sg7
I1721
sg8
I1558
sg9
I1643
sg10
I548
sg11
I1994
sg12
I1516
sg13
I1412
sg14
I1533
sg15
I541
sg16
I780
sg17
I721
sg18
I1686
sg19
I695
sg20
I584
sg21
I1380
sg22
I556
sg23
I1573
sg24
I1691
sg25
I1392
sg26
I1744
sg27
I443
sg28
I2251
sg29
I1663
sg30
I776
sg31
I534
sg32
I759
sg33
I1730
sg34
I1750
sg35
I1698
sg36
I921
sg37
I546
sg38
I667
sg39
I532
sg40
I902
sg41
I250
sg42
I1096
sg43
I484
sg44
I1689
sg45
I675
sg46
I1732
sg47
I1751
sg48
I1734
sg49
I1664
sg50
I1734
sg51
I1725
sg52
I632
sg53
I595
sg54
I483
sg55
I1244
sg56
I1715
sg57
I1726
sg58
I620
sg59
I1732
sg60
I1668
sg61
I1719
sg62
I1702
sg63
I977
sg64
I1738
sg65
I1551
sg66
I886
sg67
I495
sg68
I1329
sg69
I611
sg70
I694
sg71
I746
sg72
I417
sg73
I731
sg74
I1736
sg75
I545
sg76
I1676
sg77
I276
sg78
I1885
sg79
I1584
sg80
I596
sg81
I1664
sg82
I1045
sg83
I1730
sg84
I548
sg85
I1246
sg86
I544
sg87
I1720
sg88
I1720
sg89
I1152
sg90
I447
sg91
I497
sg92
I1262
sg93
I1611
sg94
I1754
sg95
I1721
sg96
I753
sg97
I1690
sg98
I725
sg99
I696
sg100
I1743
sg101
I1748
sg102
I561
ssg29
(dp128
g2
I685
sg4
I994
sg5
I1282
sg6
I529
sg7
I1759
sg8
I1531
sg9
I1705
sg10
I555
sg11
I1742
sg12
I1628
sg13
I1375
sg14
I1613
sg15
I548
sg16
I789
sg17
I712
sg18
I1730
sg19
I728
sg20
I613
sg21
I1392
sg22
I562
sg23
I1597
sg24
I1712
sg25
I1347
sg26
I1800
sg27
I453
sg28
I1663
sg29
I2277
sg30
I821
sg31
I544
sg32
I778
sg33
I1761
sg34
I1803
sg35
I1749
sg36
I948
sg37
I569
sg38
I669
sg39
I557
sg40
I907
sg41
I251
sg42
I1107
sg43
I494
sg44
I1740
sg45
I687
sg46
I1788
sg47
I1807
sg48
I1771
sg49
I1715
sg50
I1791
sg51
I1754
sg52
I660
sg53
I608
sg54
I475
sg55
I1263
sg56
I1763
sg57
I1745
sg58
I641
sg59
I1754
sg60
I1626
sg61
I1724
sg62
I1758
sg63
I1050
sg64
I1763
sg65
I1556
sg66
I856
sg67
I508
sg68
I1273
sg69
I625
sg70
I701
sg71
I764
sg72
I422
sg73
I754
sg74
I1815
sg75
I563
sg76
I1676
sg77
I284
sg78
I1688
sg79
I1584
sg80
I616
sg81
I1792
sg82
I1037
sg83
I1760
sg84
I579
sg85
I1220
sg86
I554
sg87
I1743
sg88
I1777
sg89
I1174
sg90
I469
sg91
I525
sg92
I1338
sg93
I1454
sg94
I1761
sg95
I1655
sg96
I774
sg97
I1752
sg98
I739
sg99
I700
sg100
I1740
sg101
I1765
sg102
I583
ssg30
(dp129
g2
I584
sg4
I753
sg5
I605
sg6
I401
sg7
I812
sg8
I643
sg9
I875
sg10
I566
sg11
I826
sg12
I756
sg13
I656
sg14
I812
sg15
I404
sg16
I665
sg17
I463
sg18
I833
sg19
I943
sg20
I528
sg21
I835
sg22
I410
sg23
I816
sg24
I827
sg25
I811
sg26
I872
sg27
I572
sg28
I776
sg29
I821
sg30
I1206
sg31
I404
sg32
I848
sg33
I826
sg34
I875
sg35
I820
sg36
I594
sg37
I480
sg38
I522
sg39
I428
sg40
I591
sg41
I316
sg42
I736
sg43
I385
sg44
I825
sg45
I463
sg46
I871
sg47
I874
sg48
I829
sg49
I831
sg50
I870
sg51
I867
sg52
I554
sg53
I435
sg54
I350
sg55
I781
sg56
I827
sg57
I824
sg58
I469
sg59
I864
sg60
I814
sg61
I866
sg62
I817
sg63
I621
sg64
I829
sg65
I790
sg66
I930
sg67
I396
sg68
I663
sg69
I434
sg70
I475
sg71
I576
sg72
I499
sg73
I519
sg74
I872
sg75
I713
sg76
I783
sg77
I119
sg78
I819
sg79
I873
sg80
I502
sg81
I815
sg82
I808
sg83
I823
sg84
I465
sg85
I606
sg86
I390
sg87
I827
sg88
I814
sg89
I626
sg90
I560
sg91
I470
sg92
I608
sg93
I644
sg94
I834
sg95
I794
sg96
I643
sg97
I849
sg98
I504
sg99
I477
sg100
I821
sg101
I834
sg102
I492
ssg31
(dp130
g2
I400
sg4
I526
sg5
I493
sg6
I834
sg7
I556
sg8
I409
sg9
I561
sg10
I433
sg11
I559
sg12
I553
sg13
I533
sg14
I528
sg15
I833
sg16
I509
sg17
I463
sg18
I517
sg19
I395
sg20
I496
sg21
I540
sg22
I453
sg23
I546
sg24
I554
sg25
I554
sg26
I567
sg27
I394
sg28
I534
sg29
I544
sg30
I404
sg31
I859
sg32
I443
sg33
I549
sg34
I566
sg35
I559
sg36
I530
sg37
I463
sg38
I643
sg39
I391
sg40
I538
sg41
I209
sg42
I480
sg43
I417
sg44
I545
sg45
I502
sg46
I567
sg47
I569
sg48
I551
sg49
I550
sg50
I567
sg51
I561
sg52
I379
sg53
I630
sg54
I381
sg55
I545
sg56
I559
sg57
I552
sg58
I539
sg59
I564
sg60
I540
sg61
I559
sg62
I561
sg63
I548
sg64
I555
sg65
I453
sg66
I447
sg67
I764
sg68
I529
sg69
I478
sg70
I487
sg71
I524
sg72
I367
sg73
I571
sg74
I563
sg75
I400
sg76
I535
sg77
I189
sg78
I558
sg79
I565
sg80
I452
sg81
I551
sg82
I552
sg83
I559
sg84
I512
sg85
I409
sg86
I514
sg87
I549
sg88
I561
sg89
I546
sg90
I376
sg91
I418
sg92
I406
sg93
I543
sg94
I560
sg95
I551
sg96
I533
sg97
I569
sg98
I508
sg99
I485
sg100
I559
sg101
I564
sg102
I426
ssg32
(dp131
g2
I640
sg4
I681
sg5
I654
sg6
I433
sg7
I757
sg8
I619
sg9
I813
sg10
I529
sg11
I773
sg12
I703
sg13
I694
sg14
I760
sg15
I439
sg16
I620
sg17
I508
sg18
I761
sg19
I851
sg20
I496
sg21
I793
sg22
I390
sg23
I766
sg24
I765
sg25
I778
sg26
I826
sg27
I499
sg28
I759
sg29
I778
sg30
I848
sg31
I443
sg32
I1290
sg33
I773
sg34
I823
sg35
I778
sg36
I661
sg37
I469
sg38
I546
sg39
I454
sg40
I633
sg41
I309
sg42
I746
sg43
I349
sg44
I770
sg45
I507
sg46
I818
sg47
I822
sg48
I789
sg49
I765
sg50
I817
sg51
I821
sg52
I600
sg53
I467
sg54
I377
sg55
I775
sg56
I776
sg57
I770
sg58
I470
sg59
I815
sg60
I778
sg61
I808
sg62
I767
sg63
I640
sg64
I774
sg65
I744
sg66
I1031
sg67
I433
sg68
I706
sg69
I472
sg70
I600
sg71
I600
sg72
I394
sg73
I508
sg74
I826
sg75
I598
sg76
I754
sg77
I168
sg78
I765
sg79
I823
sg80
I483
sg81
I765
sg82
I754
sg83
I764
sg84
I502
sg85
I571
sg86
I432
sg87
I772
sg88
I760
sg89
I651
sg90
I452
sg91
I427
sg92
I561
sg93
I604
sg94
I780
sg95
I764
sg96
I659
sg97
I779
sg98
I533
sg99
I600
sg100
I774
sg101
I780
sg102
I473
ssg33
(dp132
g2
I689
sg4
I1052
sg5
I1344
sg6
I536
sg7
I1907
sg8
I1671
sg9
I1785
sg10
I566
sg11
I1853
sg12
I1622
sg13
I1437
sg14
I1573
sg15
I582
sg16
I817
sg17
I735
sg18
I1942
sg19
I772
sg20
I642
sg21
I1486
sg22
I572
sg23
I1697
sg24
I1764
sg25
I1413
sg26
I1895
sg27
I455
sg28
I1730
sg29
I1761
sg30
I826
sg31
I549
sg32
I773
sg33
I2322
sg34
I1899
sg35
I1939
sg36
I963
sg37
I631
sg38
I673
sg39
I573
sg40
I952
sg41
I247
sg42
I1116
sg43
I505
sg44
I1869
sg45
I715
sg46
I1879
sg47
I1899
sg48
I1992
sg49
I1838
sg50
I1887
sg51
I1888
sg52
I668
sg53
I608
sg54
I501
sg55
I1296
sg56
I1954
sg57
I2284
sg58
I645
sg59
I1881
sg60
I1676
sg61
I1953
sg62
I1912
sg63
I1056
sg64
I2294
sg65
I1617
sg66
I869
sg67
I508
sg68
I1344
sg69
I624
sg70
I759
sg71
I763
sg72
I420
sg73
I783
sg74
I1879
sg75
I606
sg76
I1732
sg77
I285
sg78
I1775
sg79
I1701
sg80
I636
sg81
I1765
sg82
I1044
sg83
I1913
sg84
I630
sg85
I1254
sg86
I556
sg87
I2185
sg88
I1908
sg89
I1232
sg90
I469
sg91
I527
sg92
I1320
sg93
I1501
sg94
I2000
sg95
I1788
sg96
I804
sg97
I1819
sg98
I769
sg99
I718
sg100
I1901
sg101
I2006
sg102
I592
ssg34
(dp133
g2
I696
sg4
I1112
sg5
I1383
sg6
I551
sg7
I1866
sg8
I1636
sg9
I4056
sg10
I567
sg11
I1889
sg12
I1653
sg13
I1477
sg14
I1624
sg15
I617
sg16
I922
sg17
I715
sg18
I1850
sg19
I865
sg20
I667
sg21
I1468
sg22
I585
sg23
I1674
sg24
I1785
sg25
I1397
sg26
I4291
sg27
I467
sg28
I1750
sg29
I1803
sg30
I875
sg31
I566
sg32
I823
sg33
I1899
sg34
I4728
sg35
I1886
sg36
I968
sg37
I647
sg38
I683
sg39
I584
sg40
I960
sg41
I251
sg42
I1215
sg43
I522
sg44
I1834
sg45
I701
sg46
I3669
sg47
I4648
sg48
I1899
sg49
I1812
sg50
I4114
sg51
I3091
sg52
I682
sg53
I621
sg54
I485
sg55
I1311
sg56
I1899
sg57
I1889
sg58
I652
sg59
I3145
sg60
I1714
sg61
I1904
sg62
I1853
sg63
I1056
sg64
I1903
sg65
I3652
sg66
I968
sg67
I514
sg68
I1361
sg69
I634
sg70
I796
sg71
I771
sg72
I429
sg73
I807
sg74
I4454
sg75
I654
sg76
I1771
sg77
I286
sg78
I1773
sg79
I4165
sg80
I643
sg81
I1819
sg82
I1098
sg83
I1874
sg84
I651
sg85
I1290
sg86
I574
sg87
I1850
sg88
I1875
sg89
I1211
sg90
I490
sg91
I528
sg92
I1357
sg93
I1519
sg94
I1868
sg95
I1843
sg96
I802
sg97
I1921
sg98
I750
sg99
I733
sg100
I1853
sg101
I1873
sg102
I603
ssg35
(dp134
g2
I689
sg4
I1058
sg5
I1378
sg6
I546
sg7
I1896
sg8
I1661
sg9
I1771
sg10
I574
sg11
I1822
sg12
I1610
sg13
I1462
sg14
I1555
sg15
I591
sg16
I813
sg17
I732
sg18
I1855
sg19
I765
sg20
I650
sg21
I1467
sg22
I581
sg23
I1727
sg24
I1752
sg25
I1399
sg26
I1885
sg27
I458
sg28
I1698
sg29
I1749
sg30
I820
sg31
I559
sg32
I778
sg33
I1939
sg34
I1886
sg35
I2274
sg36
I983
sg37
I629
sg38
I679
sg39
I576
sg40
I954
sg41
I247
sg42
I1139
sg43
I503
sg44
I1880
sg45
I704
sg46
I1868
sg47
I1883
sg48
I1899
sg49
I1845
sg50
I1872
sg51
I1871
sg52
I672
sg53
I623
sg54
I492
sg55
I1283
sg56
I2233
sg57
I1921
sg58
I653
sg59
I1866
sg60
I1689
sg61
I1858
sg62
I1879
sg63
I1060
sg64
I1940
sg65
I1604
sg66
I861
sg67
I518
sg68
I1368
sg69
I635
sg70
I765
sg71
I762
sg72
I423
sg73
I776
sg74
I1860
sg75
I603
sg76
I1709
sg77
I279
sg78
I1761
sg79
I1667
sg80
I639
sg81
I1752
sg82
I1041
sg83
I1893
sg84
I631
sg85
I1273
sg86
I563
sg87
I1876
sg88
I1884
sg89
I1212
sg90
I476
sg91
I524
sg92
I1300
sg93
I1488
sg94
I1906
sg95
I1777
sg96
I803
sg97
I1796
sg98
I754
sg99
I726
sg100
I1883
sg101
I1914
sg102
I597
ssg36
(dp135
g2
I700
sg4
I785
sg5
I860
sg6
I520
sg7
I961
sg8
I772
sg9
I939
sg10
I520
sg11
I968
sg12
I787
sg13
I915
sg14
I912
sg15
I529
sg16
I569
sg17
I683
sg18
I923
sg19
I544
sg20
I540
sg21
I930
sg22
I559
sg23
I939
sg24
I957
sg25
I937
sg26
I966
sg27
I430
sg28
I921
sg29
I948
sg30
I594
sg31
I530
sg32
I661
sg33
I963
sg34
I968
sg35
I983
sg36
I1177
sg37
I500
sg38
I661
sg39
I531
sg40
I826
sg41
I243
sg42
I1002
sg43
I491
sg44
I926
sg45
I677
sg46
I965
sg47
I967
sg48
I963
sg49
I919
sg50
I965
sg51
I960
sg52
I678
sg53
I613
sg54
I458
sg55
I1087
sg56
I983
sg57
I961
sg58
I649
sg59
I965
sg60
I934
sg61
I971
sg62
I962
sg63
I763
sg64
I966
sg65
I868
sg66
I604
sg67
I520
sg68
I918
sg69
I551
sg70
I684
sg71
I708
sg72
I416
sg73
I556
sg74
I967
sg75
I508
sg76
I919
sg77
I225
sg78
I962
sg79
I971
sg80
I594
sg81
I927
sg82
I759
sg83
I958
sg84
I530
sg85
I632
sg86
I548
sg87
I963
sg88
I965
sg89
I924
sg90
I469
sg91
I501
sg92
I611
sg93
I685
sg94
I967
sg95
I928
sg96
I645
sg97
I975
sg98
I706
sg99
I686
sg100
I961
sg101
I968
sg102
I578
ssg37
(dp136
g2
I455
sg4
I624
sg5
I519
sg6
I463
sg7
I586
sg8
I425
sg9
I651
sg10
I466
sg11
I621
sg12
I573
sg13
I590
sg14
I568
sg15
I519
sg16
I516
sg17
I451
sg18
I567
sg19
I567
sg20
I549
sg21
I577
sg22
I420
sg23
I576
sg24
I585
sg25
I575
sg26
I650
sg27
I430
sg28
I546
sg29
I569
sg30
I480
sg31
I463
sg32
I469
sg33
I631
sg34
I647
sg35
I629
sg36
I500
sg37
I1021
sg38
I433
sg39
I436
sg40
I523
sg41
I215
sg42
I514
sg43
I396
sg44
I590
sg45
I488
sg46
I647
sg47
I646
sg48
I593
sg49
I585
sg50
I648
sg51
I656
sg52
I440
sg53
I439
sg54
I364
sg55
I555
sg56
I629
sg57
I635
sg58
I443
sg59
I648
sg60
I571
sg61
I602
sg62
I591
sg63
I556
sg64
I638
sg65
I505
sg66
I473
sg67
I435
sg68
I571
sg69
I457
sg70
I559
sg71
I478
sg72
I396
sg73
I543
sg74
I657
sg75
I535
sg76
I562
sg77
I125
sg78
I571
sg79
I646
sg80
I725
sg81
I575
sg82
I545
sg83
I584
sg84
I830
sg85
I411
sg86
I408
sg87
I590
sg88
I591
sg89
I539
sg90
I401
sg91
I406
sg92
I417
sg93
I552
sg94
I596
sg95
I619
sg96
I587
sg97
I591
sg98
I497
sg99
I461
sg100
I582
sg101
I604
sg102
I645
ssg38
(dp137
g2
I555
sg4
I668
sg5
I617
sg6
I622
sg7
I668
sg8
I534
sg9
I673
sg10
I514
sg11
I679
sg12
I605
sg13
I663
sg14
I656
sg15
I642
sg16
I600
sg17
I466
sg18
I645
sg19
I480
sg20
I595
sg21
I669
sg22
I563
sg23
I654
sg24
I676
sg25
I671
sg26
I688
sg27
I410
sg28
I667
sg29
I669
sg30
I522
sg31
I643
sg32
I546
sg33
I673
sg34
I683
sg35
I679
sg36
I661
sg37
I433
sg38
I1029
sg39
I412
sg40
I647
sg41
I215
sg42
I628
sg43
I501
sg44
I668
sg45
I499
sg46
I689
sg47
I680
sg48
I674
sg49
I658
sg50
I687
sg51
I684
sg52
I540
sg53
I672
sg54
I389
sg55
I661
sg56
I679
sg57
I675
sg58
I633
sg59
I677
sg60
I665
sg61
I681
sg62
I670
sg63
I600
sg64
I677
sg65
I613
sg66
I540
sg67
I629
sg68
I656
sg69
I452
sg70
I517
sg71
I694
sg72
I374
sg73
I605
sg74
I681
sg75
I485
sg76
I656
sg77
I155
sg78
I676
sg79
I685
sg80
I496
sg81
I666
sg82
I678
sg83
I673
sg84
I470
sg85
I486
sg86
I574
sg87
I670
sg88
I676
sg89
I668
sg90
I377
sg91
I435
sg92
I464
sg93
I497
sg94
I682
sg95
I665
sg96
I524
sg97
I685
sg98
I498
sg99
I520
sg100
I680
sg101
I684
sg102
I483
ssg39
(dp138
g2
I603
sg4
I516
sg5
I500
sg6
I391
sg7
I581
sg8
I429
sg9
I582
sg10
I396
sg11
I563
sg12
I462
sg13
I529
sg14
I566
sg15
I392
sg16
I337
sg17
I380
sg18
I559
sg19
I389
sg20
I379
sg21
I567
sg22
I404
sg23
I556
sg24
I551
sg25
I545
sg26
I587
sg27
I394
sg28
I532
sg29
I557
sg30
I428
sg31
I391
sg32
I454
sg33
I573
sg34
I584
sg35
I576
sg36
I531
sg37
I436
sg38
I412
sg39
I924
sg40
I521
sg41
I195
sg42
I513
sg43
I371
sg44
I555
sg45
I414
sg46
I584
sg47
I585
sg48
I576
sg49
I550
sg50
I584
sg51
I581
sg52
I550
sg53
I424
sg54
I313
sg55
I546
sg56
I574
sg57
I572
sg58
I426
sg59
I579
sg60
I556
sg61
I574
sg62
I580
sg63
I448
sg64
I575
sg65
I481
sg66
I434
sg67
I355
sg68
I540
sg69
I375
sg70
I663
sg71
I436
sg72
I363
sg73
I402
sg74
I586
sg75
I386
sg76
I541
sg77
I128
sg78
I544
sg79
I584
sg80
I481
sg81
I534
sg82
I479
sg83
I577
sg84
I417
sg85
I342
sg86
I386
sg87
I574
sg88
I582
sg89
I538
sg90
I378
sg91
I354
sg92
I349
sg93
I456
sg94
I577
sg95
I548
sg96
I484
sg97
I577
sg98
I409
sg99
I661
sg100
I575
sg101
I575
sg102
I452
ssg40
(dp139
g2
I614
sg4
I733
sg5
I825
sg6
I526
sg7
I943
sg8
I756
sg9
I935
sg10
I531
sg11
I934
sg12
I795
sg13
I895
sg14
I896
sg15
I537
sg16
I583
sg17
I642
sg18
I923
sg19
I563
sg20
I565
sg21
I932
sg22
I548
sg23
I920
sg24
I935
sg25
I920
sg26
I960
sg27
I441
sg28
I902
sg29
I907
sg30
I591
sg31
I538
sg32
I633
sg33
I952
sg34
I960
sg35
I954
sg36
I826
sg37
I523
sg38
I647
sg39
I521
sg40
I1286
sg41
I238
sg42
I804
sg43
I472
sg44
I936
sg45
I664
sg46
I960
sg47
I959
sg48
I955
sg49
I938
sg50
I959
sg51
I943
sg52
I598
sg53
I579
sg54
I460
sg55
I868
sg56
I954
sg57
I951
sg58
I589
sg59
I946
sg60
I900
sg61
I950
sg62
I942
sg63
I776
sg64
I954
sg65
I826
sg66
I627
sg67
I499
sg68
I893
sg69
I536
sg70
I642
sg71
I700
sg72
I411
sg73
I591
sg74
I961
sg75
I532
sg76
I889
sg77
I246
sg78
I939
sg79
I963
sg80
I545
sg81
I894
sg82
I742
sg83
I938
sg84
I532
sg85
I606
sg86
I531
sg87
I946
sg88
I944
sg89
I878
sg90
I429
sg91
I476
sg92
I627
sg93
I697
sg94
I941
sg95
I915
sg96
I638
sg97
I944
sg98
I672
sg99
I645
sg100
I959
sg101
I937
sg102
I519
ssg41
(dp140
g2
I229
sg4
I247
sg5
I174
sg6
I208
sg7
I243
sg8
I86
sg9
I249
sg10
I240
sg11
I250
sg12
I228
sg13
I244
sg14
I239
sg15
I208
sg16
I196
sg17
I234
sg18
I251
sg19
I305
sg20
I195
sg21
I242
sg22
I207
sg23
I249
sg24
I248
sg25
I248
sg26
I251
sg27
I301
sg28
I250
sg29
I251
sg30
I316
sg31
I209
sg32
I309
sg33
I247
sg34
I251
sg35
I247
sg36
I243
sg37
I215
sg38
I215
sg39
I195
sg40
I238
sg41
I349
sg42
I237
sg43
I216
sg44
I238
sg45
I236
sg46
I250
sg47
I251
sg48
I247
sg49
I240
sg50
I249
sg51
I246
sg52
I193
sg53
I208
sg54
I208
sg55
I242
sg56
I247
sg57
I251
sg58
I217
sg59
I247
sg60
I251
sg61
I251
sg62
I247
sg63
I223
sg64
I252
sg65
I167
sg66
I317
sg67
I200
sg68
I242
sg69
I182
sg70
I210
sg71
I231
sg72
I256
sg73
I226
sg74
I255
sg75
I315
sg76
I242
sg77
I120
sg78
I247
sg79
I250
sg80
I223
sg81
I236
sg82
I247
sg83
I244
sg84
I244
sg85
I96
sg86
I203
sg87
I247
sg88
I249
sg89
I250
sg90
I258
sg91
I208
sg92
I83
sg93
I214
sg94
I255
sg95
I247
sg96
I249
sg97
I254
sg98
I238
sg99
I211
sg100
I249
sg101
I255
sg102
I231
ssg42
(dp141
g2
I682
sg4
I915
sg5
I862
sg6
I491
sg7
I1108
sg8
I930
sg9
I1262
sg10
I531
sg11
I1105
sg12
I934
sg13
I907
sg14
I1107
sg15
I478
sg16
I768
sg17
I623
sg18
I1099
sg19
I703
sg20
I554
sg21
I1112
sg22
I537
sg23
I1072
sg24
I1101
sg25
I1068
sg26
I1218
sg27
I431
sg28
I1096
sg29
I1107
sg30
I736
sg31
I480
sg32
I746
sg33
I1116
sg34
I1215
sg35
I1139
sg36
I1002
sg37
I514
sg38
I628
sg39
I513
sg40
I804
sg41
I237
sg42
I1893
sg43
I483
sg44
I1081
sg45
I607
sg46
I1219
sg47
I1213
sg48
I1120
sg49
I1065
sg50
I1220
sg51
I1206
sg52
I664
sg53
I577
sg54
I433
sg55
I1297
sg56
I1130
sg57
I1119
sg58
I629
sg59
I1208
sg60
I1066
sg61
I1174
sg62
I1108
sg63
I798
sg64
I1120
sg65
I1118
sg66
I820
sg67
I475
sg68
I923
sg69
I566
sg70
I654
sg71
I722
sg72
I402
sg73
I668
sg74
I1223
sg75
I507
sg76
I1103
sg77
I190
sg78
I1085
sg79
I1214
sg80
I560
sg81
I1090
sg82
I984
sg83
I1128
sg84
I487
sg85
I789
sg86
I519
sg87
I1120
sg88
I1122
sg89
I863
sg90
I439
sg91
I476
sg92
I803
sg93
I843
sg94
I1122
sg95
I1066
sg96
I728
sg97
I1133
sg98
I640
sg99
I656
sg100
I1114
sg101
I1120
sg102
I544
ssg43
(dp142
g2
I417
sg4
I531
sg5
I436
sg6
I415
sg7
I501
sg8
I349
sg9
I518
sg10
I366
sg11
I504
sg12
I416
sg13
I485
sg14
I483
sg15
I428
sg16
I423
sg17
I404
sg18
I508
sg19
I366
sg20
I479
sg21
I490
sg22
I496
sg23
I477
sg24
I510
sg25
I490
sg26
I530
sg27
I366
sg28
I484
sg29
I494
sg30
I385
sg31
I417
sg32
I349
sg33
I505
sg34
I522
sg35
I503
sg36
I491
sg37
I396
sg38
I501
sg39
I371
sg40
I472
sg41
I216
sg42
I483
sg43
I823
sg44
I485
sg45
I415
sg46
I528
sg47
I526
sg48
I498
sg49
I488
sg50
I529
sg51
I517
sg52
I400
sg53
I493
sg54
I328
sg55
I500
sg56
I502
sg57
I509
sg58
I530
sg59
I519
sg60
I478
sg61
I513
sg62
I500
sg63
I405
sg64
I509
sg65
I434
sg66
I334
sg67
I399
sg68
I489
sg69
I351
sg70
I416
sg71
I505
sg72
I366
sg73
I497
sg74
I531
sg75
I373
sg76
I476
sg77
I118
sg78
I497
sg79
I520
sg80
I454
sg81
I496
sg82
I517
sg83
I497
sg84
I389
sg85
I271
sg86
I536
sg87
I497
sg88
I507
sg89
I498
sg90
I362
sg91
I391
sg92
I264
sg93
I403
sg94
I507
sg95
I497
sg96
I427
sg97
I514
sg98
I420
sg99
I409
sg100
I497
sg101
I511
sg102
I427
ssg44
(dp143
g2
I665
sg4
I983
sg5
I1324
sg6
I530
sg7
I1886
sg8
I1664
sg9
I1722
sg10
I563
sg11
I1763
sg12
I1634
sg13
I1400
sg14
I1565
sg15
I548
sg16
I794
sg17
I736
sg18
I1819
sg19
I732
sg20
I616
sg21
I1451
sg22
I562
sg23
I1685
sg24
I1728
sg25
I1380
sg26
I1829
sg27
I455
sg28
I1689
sg29
I1740
sg30
I825
sg31
I545
sg32
I770
sg33
I1869
sg34
I1834
sg35
I1880
sg36
I926
sg37
I590
sg38
I668
sg39
I555
sg40
I936
sg41
I238
sg42
I1081
sg43
I485
sg44
I2242
sg45
I711
sg46
I1812
sg47
I1832
sg48
I1882
sg49
I2015
sg50
I1816
sg51
I1818
sg52
I647
sg53
I602
sg54
I489
sg55
I1240
sg56
I1898
sg57
I1857
sg58
I629
sg59
I1814
sg60
I1650
sg61
I1830
sg62
I1871
sg63
I1060
sg64
I1867
sg65
I1590
sg66
I875
sg67
I503
sg68
I1320
sg69
I620
sg70
I697
sg71
I756
sg72
I426
sg73
I729
sg74
I1818
sg75
I569
sg76
I1696
sg77
I280
sg78
I1732
sg79
I1636
sg80
I621
sg81
I1748
sg82
I1043
sg83
I1876
sg84
I590
sg85
I1262
sg86
I545
sg87
I1844
sg88
I1872
sg89
I1182
sg90
I477
sg91
I532
sg92
I1323
sg93
I1491
sg94
I1867
sg95
I1718
sg96
I784
sg97
I1784
sg98
I764
sg99
I694
sg100
I1854
sg101
I1877
sg102
I582
ssg45
(dp144
g2
I472
sg4
I520
sg5
I604
sg6
I491
sg7
I706
sg8
I507
sg9
I675
sg10
I411
sg11
I707
sg12
I658
sg13
I671
sg14
I678
sg15
I504
sg16
I483
sg17
I775
sg18
I671
sg19
I422
sg20
I436
sg21
I699
sg22
I482
sg23
I708
sg24
I707
sg25
I694
sg26
I701
sg27
I441
sg28
I675
sg29
I687
sg30
I463
sg31
I502
sg32
I507
sg33
I715
sg34
I701
sg35
I704
sg36
I677
sg37
I488
sg38
I499
sg39
I414
sg40
I664
sg41
I236
sg42
I607
sg43
I415
sg44
I711
sg45
I861
sg46
I698
sg47
I699
sg48
I711
sg49
I708
sg50
I699
sg51
I700
sg52
I450
sg53
I523
sg54
I506
sg55
I674
sg56
I703
sg57
I714
sg58
I509
sg59
I698
sg60
I706
sg61
I712
sg62
I711
sg63
I670
sg64
I719
sg65
I605
sg66
I495
sg67
I495
sg68
I663
sg69
I509
sg70
I545
sg71
I544
sg72
I423
sg73
I511
sg74
I701
sg75
I432
sg76
I666
sg77
I235
sg78
I707
sg79
I700
sg80
I488
sg81
I689
sg82
I573
sg83
I714
sg84
I528
sg85
I503
sg86
I493
sg87
I712
sg88
I717
sg89
I705
sg90
I431
sg91
I465
sg92
I482
sg93
I653
sg94
I717
sg95
I686
sg96
I542
sg97
I713
sg98
I768
sg99
I546
sg100
I710
sg101
I719
sg102
I478
ssg46
(dp145
g2
I695
sg4
I1116
sg5
I1378
sg6
I552
sg7
I1858
sg8
I1622
sg9
I3458
sg10
I568
sg11
I1866
sg12
I1639
sg13
I1473
sg14
I1606
sg15
I614
sg16
I909
sg17
I711
sg18
I1827
sg19
I855
sg20
I665
sg21
I1459
sg22
I587
sg23
I1669
sg24
I1781
sg25
I1400
sg26
I3758
sg27
I466
sg28
I1732
sg29
I1788
sg30
I871
sg31
I567
sg32
I818
sg33
I1879
sg34
I3669
sg35
I1868
sg36
I965
sg37
I647
sg38
I689
sg39
I584
sg40
I960
sg41
I250
sg42
I1219
sg43
I528
sg44
I1812
sg45
I698
sg46
I3944
sg47
I3687
sg48
I1874
sg49
I1791
sg50
I3908
sg51
I2864
sg52
I683
sg53
I621
sg54
I482
sg55
I1326
sg56
I1880
sg57
I1868
sg58
I655
sg59
I2919
sg60
I1704
sg61
I1898
sg62
I1833
sg63
I1053
sg64
I1884
sg65
I2831
sg66
I965
sg67
I518
sg68
I1359
sg69
I634
sg70
I792
sg71
I772
sg72
I428
sg73
I807
sg74
I3652
sg75
I645
sg76
I1763
sg77
I281
sg78
I1760
sg79
I3248
sg80
I647
sg81
I1809
sg82
I1099
sg83
I1855
sg84
I652
sg85
I1288
sg86
I577
sg87
I1832
sg88
I1871
sg89
I1206
sg90
I484
sg91
I527
sg92
I1354
sg93
I1503
sg94
I1857
sg95
I1832
sg96
I801
sg97
I1899
sg98
I746
sg99
I732
sg100
I1835
sg101
I1866
sg102
I606
ssg47
(dp146
g2
I696
sg4
I1112
sg5
I1385
sg6
I554
sg7
I1866
sg8
I1638
sg9
I4084
sg10
I563
sg11
I1893
sg12
I1655
sg13
I1479
sg14
I1622
sg15
I618
sg16
I923
sg17
I712
sg18
I1853
sg19
I865
sg20
I671
sg21
I1469
sg22
I585
sg23
I1680
sg24
I1787
sg25
I1398
sg26
I4327
sg27
I465
sg28
I1751
sg29
I1807
sg30
I874
sg31
I569
sg32
I822
sg33
I1899
sg34
I4648
sg35
I1883
sg36
I967
sg37
I646
sg38
I680
sg39
I585
sg40
I959
sg41
I251
sg42
I1213
sg43
I526
sg44
I1832
sg45
I699
sg46
I3687
sg47
I4729
sg48
I1900
sg49
I1809
sg50
I4148
sg51
I3100
sg52
I683
sg53
I620
sg54
I486
sg55
I1311
sg56
I1896
sg57
I1889
sg58
I655
sg59
I3156
sg60
I1715
sg61
I1906
sg62
I1853
sg63
I1052
sg64
I1903
sg65
I3679
sg66
I970
sg67
I517
sg68
I1363
sg69
I631
sg70
I798
sg71
I775
sg72
I433
sg73
I806
sg74
I4487
sg75
I652
sg76
I1778
sg77
I287
sg78
I1771
sg79
I4180
sg80
I641
sg81
I1817
sg82
I1094
sg83
I1875
sg84
I649
sg85
I1289
sg86
I576
sg87
I1853
sg88
I1877
sg89
I1210
sg90
I490
sg91
I525
sg92
I1360
sg93
I1519
sg94
I1871
sg95
I1844
sg96
I805
sg97
I1925
sg98
I749
sg99
I734
sg100
I1851
sg101
I1877
sg102
I603
ssg48
(dp147
g2
I698
sg4
I1015
sg5
I1354
sg6
I539
sg7
I1928
sg8
I1706
sg9
I1787
sg10
I568
sg11
I1823
sg12
I1645
sg13
I1415
sg14
I1598
sg15
I556
sg16
I808
sg17
I734
sg18
I2128
sg19
I727
sg20
I615
sg21
I1495
sg22
I577
sg23
I1726
sg24
I1785
sg25
I1410
sg26
I1894
sg27
I459
sg28
I1734
sg29
I1771
sg30
I829
sg31
I551
sg32
I789
sg33
I1992
sg34
I1899
sg35
I1899
sg36
I963
sg37
I593
sg38
I674
sg39
I576
sg40
I955
sg41
I247
sg42
I1120
sg43
I498
sg44
I1882
sg45
I711
sg46
I1874
sg47
I1900
sg48
I2368
sg49
I1845
sg50
I1877
sg51
I1864
sg52
I674
sg53
I620
sg54
I493
sg55
I1285
sg56
I1917
sg57
I1976
sg58
I641
sg59
I1870
sg60
I1697
sg61
I1944
sg62
I1910
sg63
I1065
sg64
I1996
sg65
I1659
sg66
I886
sg67
I511
sg68
I1342
sg69
I624
sg70
I722
sg71
I767
sg72
I430
sg73
I752
sg74
I1869
sg75
I560
sg76
I1764
sg77
I279
sg78
I1783
sg79
I1691
sg80
I634
sg81
I1787
sg82
I1063
sg83
I1941
sg84
I590
sg85
I1293
sg86
I558
sg87
I1995
sg88
I1910
sg89
I1222
sg90
I484
sg91
I517
sg92
I1337
sg93
I1527
sg94
I2014
sg95
I1760
sg96
I807
sg97
I1829
sg98
I766
sg99
I724
sg100
I1926
sg101
I2013
sg102
I593
ssg49
(dp148
g2
I660
sg4
I985
sg5
I1322
sg6
I535
sg7
I1827
sg8
I1601
sg9
I1703
sg10
I568
sg11
I1746
sg12
I1616
sg13
I1397
sg14
I1543
sg15
I553
sg16
I772
sg17
I723
sg18
I1783
sg19
I729
sg20
I611
sg21
I1440
sg22
I559
sg23
I1674
sg24
I1710
sg25
I1378
sg26
I1805
sg27
I454
sg28
I1664
sg29
I1715
sg30
I831
sg31
I550
sg32
I765
sg33
I1838
sg34
I1812
sg35
I1845
sg36
I919
sg37
I585
sg38
I658
sg39
I550
sg40
I938
sg41
I240
sg42
I1065
sg43
I488
sg44
I2015
sg45
I708
sg46
I1791
sg47
I1809
sg48
I1845
sg49
I2219
sg50
I1797
sg51
I1812
sg52
I649
sg53
I596
sg54
I481
sg55
I1233
sg56
I1865
sg57
I1831
sg58
I622
sg59
I1805
sg60
I1623
sg61
I1789
sg62
I1846
sg63
I1055
sg64
I1835
sg65
I1569
sg66
I869
sg67
I506
sg68
I1307
sg69
I610
sg70
I691
sg71
I756
sg72
I429
sg73
I723
sg74
I1794
sg75
I569
sg76
I1675
sg77
I280
sg78
I1723
sg79
I1625
sg80
I617
sg81
I1725
sg82
I1028
sg83
I1841
sg84
I587
sg85
I1263
sg86
I548
sg87
I1809
sg88
I1823
sg89
I1155
sg90
I476
sg91
I518
sg92
I1305
sg93
I1473
sg94
I1828
sg95
I1690
sg96
I781
sg97
I1770
sg98
I760
sg99
I688
sg100
I1809
sg101
I1836
sg102
I581
ssg50
(dp149
g2
I696
sg4
I1117
sg5
I1379
sg6
I552
sg7
I1862
sg8
I1625
sg9
I3935
sg10
I568
sg11
I1870
sg12
I1645
sg13
I1475
sg14
I1611
sg15
I614
sg16
I909
sg17
I712
sg18
I1830
sg19
I854
sg20
I665
sg21
I1459
sg22
I586
sg23
I1674
sg24
I1783
sg25
I1399
sg26
I4223
sg27
I466
sg28
I1734
sg29
I1791
sg30
I870
sg31
I567
sg32
I817
sg33
I1887
sg34
I4114
sg35
I1872
sg36
I965
sg37
I648
sg38
I687
sg39
I584
sg40
I959
sg41
I249
sg42
I1220
sg43
I529
sg44
I1816
sg45
I699
sg46
I3908
sg47
I4148
sg48
I1877
sg49
I1797
sg50
I4440
sg51
I2882
sg52
I683
sg53
I621
sg54
I483
sg55
I1328
sg56
I1884
sg57
I1876
sg58
I656
sg59
I2936
sg60
I1711
sg61
I1900
sg62
I1838
sg63
I1055
sg64
I1892
sg65
I3294
sg66
I966
sg67
I518
sg68
I1358
sg69
I633
sg70
I792
sg71
I773
sg72
I428
sg73
I808
sg74
I4109
sg75
I645
sg76
I1768
sg77
I282
sg78
I1759
sg79
I3703
sg80
I648
sg81
I1815
sg82
I1100
sg83
I1859
sg84
I653
sg85
I1288
sg86
I577
sg87
I1838
sg88
I1875
sg89
I1206
sg90
I484
sg91
I526
sg92
I1357
sg93
I1507
sg94
I1861
sg95
I1834
sg96
I801
sg97
I1902
sg98
I747
sg99
I732
sg100
I1837
sg101
I1870
sg102
I605
ssg51
(dp150
g2
I694
sg4
I1098
sg5
I1361
sg6
I546
sg7
I1836
sg8
I1617
sg9
I2869
sg10
I563
sg11
I1850
sg12
I1642
sg13
I1468
sg14
I1605
sg15
I614
sg16
I928
sg17
I707
sg18
I1820
sg19
I860
sg20
I660
sg21
I1443
sg22
I580
sg23
I1649
sg24
I1758
sg25
I1392
sg26
I2989
sg27
I457
sg28
I1725
sg29
I1754
sg30
I867
sg31
I561
sg32
I821
sg33
I1888
sg34
I3091
sg35
I1871
sg36
I960
sg37
I656
sg38
I684
sg39
I581
sg40
I943
sg41
I246
sg42
I1206
sg43
I517
sg44
I1818
sg45
I700
sg46
I2864
sg47
I3100
sg48
I1864
sg49
I1812
sg50
I2882
sg51
I3431
sg52
I678
sg53
I615
sg54
I479
sg55
I1313
sg56
I1884
sg57
I1873
sg58
I652
sg59
I3258
sg60
I1706
sg61
I1869
sg62
I1827
sg63
I1048
sg64
I1887
sg65
I2467
sg66
I962
sg67
I515
sg68
I1340
sg69
I624
sg70
I813
sg71
I769
sg72
I425
sg73
I819
sg74
I3050
sg75
I664
sg76
I1752
sg77
I286
sg78
I1747
sg79
I2812
sg80
I642
sg81
I1801
sg82
I1099
sg83
I1848
sg84
I659
sg85
I1279
sg86
I570
sg87
I1829
sg88
I1840
sg89
I1199
sg90
I478
sg91
I523
sg92
I1356
sg93
I1513
sg94
I1853
sg95
I1827
sg96
I802
sg97
I1899
sg98
I746
sg99
I727
sg100
I1819
sg101
I1866
sg102
I594
ssg52
(dp151
g2
I810
sg4
I636
sg5
I607
sg6
I379
sg7
I668
sg8
I530
sg9
I684
sg10
I480
sg11
I671
sg12
I537
sg13
I640
sg14
I649
sg15
I377
sg16
I455
sg17
I445
sg18
I656
sg19
I507
sg20
I465
sg21
I672
sg22
I434
sg23
I659
sg24
I648
sg25
I654
sg26
I686
sg27
I394
sg28
I632
sg29
I660
sg30
I554
sg31
I379
sg32
I600
sg33
I668
sg34
I682
sg35
I672
sg36
I678
sg37
I440
sg38
I540
sg39
I550
sg40
I598
sg41
I193
sg42
I664
sg43
I400
sg44
I647
sg45
I450
sg46
I683
sg47
I683
sg48
I674
sg49
I649
sg50
I683
sg51
I678
sg52
I997
sg53
I464
sg54
I327
sg55
I673
sg56
I672
sg57
I668
sg58
I500
sg59
I681
sg60
I654
sg61
I668
sg62
I660
sg63
I518
sg64
I667
sg65
I624
sg66
I538
sg67
I378
sg68
I652
sg69
I398
sg70
I631
sg71
I571
sg72
I369
sg73
I412
sg74
I684
sg75
I454
sg76
I641
sg77
I101
sg78
I655
sg79
I685
sg80
I539
sg81
I632
sg82
I617
sg83
I671
sg84
I407
sg85
I418
sg86
I413
sg87
I671
sg88
I668
sg89
I636
sg90
I425
sg91
I420
sg92
I405
sg93
I441
sg94
I676
sg95
I649
sg96
I543
sg97
I665
sg98
I481
sg99
I632
sg100
I659
sg101
I675
sg102
I524
ssg53
(dp152
g2
I472
sg4
I583
sg5
I558
sg6
I624
sg7
I617
sg8
I477
sg9
I613
sg10
I431
sg11
I622
sg12
I528
sg13
I606
sg14
I589
sg15
I626
sg16
I495
sg17
I490
sg18
I595
sg19
I389
sg20
I471
sg21
I607
sg22
I556
sg23
I598
sg24
I622
sg25
I618
sg26
I627
sg27
I414
sg28
I595
sg29
I608
sg30
I435
sg31
I630
sg32
I467
sg33
I608
sg34
I621
sg35
I623
sg36
I613
sg37
I439
sg38
I672
sg39
I424
sg40
I579
sg41
I208
sg42
I577
sg43
I493
sg44
I602
sg45
I523
sg46
I621
sg47
I620
sg48
I620
sg49
I596
sg50
I621
sg51
I615
sg52
I464
sg53
I941
sg54
I387
sg55
I612
sg56
I624
sg57
I612
sg58
I616
sg59
I616
sg60
I603
sg61
I624
sg62
I618
sg63
I527
sg64
I613
sg65
I558
sg66
I458
sg67
I627
sg68
I603
sg69
I484
sg70
I535
sg71
I654
sg72
I380
sg73
I573
sg74
I617
sg75
I394
sg76
I582
sg77
I152
sg78
I619
sg79
I625
sg80
I511
sg81
I597
sg82
I609
sg83
I627
sg84
I481
sg85
I407
sg86
I576
sg87
I610
sg88
I622
sg89
I605
sg90
I390
sg91
I434
sg92
I385
sg93
I513
sg94
I627
sg95
I600
sg96
I538
sg97
I629
sg98
I531
sg99
I538
sg100
I621
sg101
I627
sg102
I493
ssg54
(dp153
g2
I359
sg4
I403
sg5
I405
sg6
I379
sg7
I491
sg8
I323
sg9
I476
sg10
I337
sg11
I491
sg12
I493
sg13
I488
sg14
I481
sg15
I382
sg16
I348
sg17
I504
sg18
I459
sg19
I344
sg20
I342
sg21
I491
sg22
I362
sg23
I499
sg24
I494
sg25
I488
sg26
I488
sg27
I353
sg28
I483
sg29
I475
sg30
I350
sg31
I381
sg32
I377
sg33
I501
sg34
I485
sg35
I492
sg36
I458
sg37
I364
sg38
I389
sg39
I313
sg40
I460
sg41
I208
sg42
I433
sg43
I328
sg44
I489
sg45
I506
sg46
I482
sg47
I486
sg48
I493
sg49
I481
sg50
I483
sg51
I479
sg52
I327
sg53
I387
sg54
I648
sg55
I464
sg56
I492
sg57
I500
sg58
I374
sg59
I478
sg60
I495
sg61
I503
sg62
I493
sg63
I501
sg64
I501
sg65
I391
sg66
I372
sg67
I375
sg68
I483
sg69
I363
sg70
I382
sg71
I402
sg72
I329
sg73
I403
sg74
I485
sg75
I345
sg76
I462
sg77
I157
sg78
I490
sg79
I489
sg80
I356
sg81
I498
sg82
I414
sg83
I492
sg84
I396
sg85
I337
sg86
I387
sg87
I493
sg88
I499
sg89
I489
sg90
I328
sg91
I369
sg92
I322
sg93
I478
sg94
I495
sg95
I481
sg96
I404
sg97
I494
sg98
I479
sg99
I382
sg100
I499
sg101
I496
sg102
I348
ssg55
(dp154
g2
I689
sg4
I962
sg5
I965
sg6
I536
sg7
I1265
sg8
I1068
sg9
I1281
sg10
I534
sg11
I1267
sg12
I1114
sg13
I1026
sg14
I1234
sg15
I547
sg16
I784
sg17
I676
sg18
I1248
sg19
I706
sg20
I598
sg21
I1244
sg22
I559
sg23
I1220
sg24
I1271
sg25
I1221
sg26
I1324
sg27
I433
sg28
I1244
sg29
I1263
sg30
I781
sg31
I545
sg32
I775
sg33
I1296
sg34
I1311
sg35
I1283
sg36
I1087
sg37
I555
sg38
I661
sg39
I546
sg40
I868
sg41
I242
sg42
I1297
sg43
I500
sg44
I1240
sg45
I674
sg46
I1326
sg47
I1311
sg48
I1285
sg49
I1233
sg50
I1328
sg51
I1313
sg52
I673
sg53
I612
sg54
I464
sg55
I1793
sg56
I1299
sg57
I1292
sg58
I643
sg59
I1312
sg60
I1212
sg61
I1324
sg62
I1270
sg63
I888
sg64
I1297
sg65
I1171
sg66
I855
sg67
I515
sg68
I1033
sg69
I620
sg70
I714
sg71
I747
sg72
I418
sg73
I738
sg74
I1328
sg75
I528
sg76
I1211
sg77
I260
sg78
I1255
sg79
I1312
sg80
I605
sg81
I1283
sg82
I1019
sg83
I1274
sg84
I553
sg85
I901
sg86
I556
sg87
I1286
sg88
I1290
sg89
I966
sg90
I463
sg91
I480
sg92
I960
sg93
I998
sg94
I1290
sg95
I1224
sg96
I773
sg97
I1282
sg98
I701
sg99
I711
sg100
I1276
sg101
I1293
sg102
I566
ssg56
(dp155
g2
I688
sg4
I1056
sg5
I1369
sg6
I546
sg7
I1907
sg8
I1670
sg9
I1786
sg10
I574
sg11
I1839
sg12
I1626
sg13
I1457
sg14
I1572
sg15
I590
sg16
I816
sg17
I732
sg18
I1873
sg19
I766
sg20
I652
sg21
I1483
sg22
I581
sg23
I1741
sg24
I1762
sg25
I1408
sg26
I1899
sg27
I458
sg28
I1715
sg29
I1763
sg30
I827
sg31
I559
sg32
I776
sg33
I1954
sg34
I1899
sg35
I2233
sg36
I983
sg37
I629
sg38
I679
sg39
I574
sg40
I954
sg41
I247
sg42
I1130
sg43
I502
sg44
I1898
sg45
I703
sg46
I1880
sg47
I1896
sg48
I1917
sg49
I1865
sg50
I1884
sg51
I1884
sg52
I672
sg53
I624
sg54
I492
sg55
I1299
sg56
I2268
sg57
I1936
sg58
I652
sg59
I1879
sg60
I1694
sg61
I1871
sg62
I1895
sg63
I1058
sg64
I1950
sg65
I1621
sg66
I872
sg67
I519
sg68
I1366
sg69
I634
sg70
I765
sg71
I761
sg72
I423
sg73
I773
sg74
I1875
sg75
I603
sg76
I1725
sg77
I280
sg78
I1779
sg79
I1682
sg80
I637
sg81
I1769
sg82
I1050
sg83
I1908
sg84
I630
sg85
I1280
sg86
I563
sg87
I1884
sg88
I1897
sg89
I1214
sg90
I477
sg91
I523
sg92
I1317
sg93
I1505
sg94
I1922
sg95
I1787
sg96
I802
sg97
I1810
sg98
I755
sg99
I726
sg100
I1897
sg101
I1930
sg102
I596
ssg57
(dp156
g2
I690
sg4
I1053
sg5
I1346
sg6
I537
sg7
I1892
sg8
I1652
sg9
I1777
sg10
I566
sg11
I1837
sg12
I1610
sg13
I1439
sg14
I1567
sg15
I585
sg16
I818
sg17
I736
sg18
I1924
sg19
I771
sg20
I642
sg21
I1479
sg22
I575
sg23
I1685
sg24
I1753
sg25
I1415
sg26
I1886
sg27
I457
sg28
I1726
sg29
I1745
sg30
I824
sg31
I552
sg32
I770
sg33
I2284
sg34
I1889
sg35
I1921
sg36
I961
sg37
I635
sg38
I675
sg39
I572
sg40
I951
sg41
I251
sg42
I1119
sg43
I509
sg44
I1857
sg45
I714
sg46
I1868
sg47
I1889
sg48
I1976
sg49
I1831
sg50
I1876
sg51
I1873
sg52
I668
sg53
I612
sg54
I500
sg55
I1292
sg56
I1936
sg57
I2322
sg58
I643
sg59
I1867
sg60
I1673
sg61
I1941
sg62
I1898
sg63
I1058
sg64
I2290
sg65
I1612
sg66
I867
sg67
I510
sg68
I1339
sg69
I624
sg70
I761
sg71
I762
sg72
I421
sg73
I787
sg74
I1870
sg75
I605
sg76
I1725
sg77
I282
sg78
I1764
sg79
I1701
sg80
I637
sg81
I1755
sg82
I1043
sg83
I1899
sg84
I626
sg85
I1246
sg86
I557
sg87
I2175
sg88
I1899
sg89
I1228
sg90
I468
sg91
I524
sg92
I1310
sg93
I1487
sg94
I1982
sg95
I1778
sg96
I802
sg97
I1812
sg98
I769
sg99
I720
sg100
I1889
sg101
I1992
sg102
I594
ssg58
(dp157
g2
I509
sg4
I640
sg5
I572
sg6
I538
sg7
I644
sg8
I489
sg9
I651
sg10
I423
sg11
I639
sg12
I518
sg13
I622
sg14
I619
sg15
I539
sg16
I500
sg17
I515
sg18
I619
sg19
I421
sg20
I470
sg21
I643
sg22
I597
sg23
I622
sg24
I643
sg25
I639
sg26
I655
sg27
I421
sg28
I620
sg29
I641
sg30
I469
sg31
I539
sg32
I470
sg33
I645
sg34
I652
sg35
I653
sg36
I649
sg37
I443
sg38
I633
sg39
I426
sg40
I589
sg41
I217
sg42
I629
sg43
I530
sg44
I629
sg45
I509
sg46
I655
sg47
I655
sg48
I641
sg49
I622
sg50
I656
sg51
I652
sg52
I500
sg53
I616
sg54
I374
sg55
I643
sg56
I652
sg57
I643
sg58
I961
sg59
I648
sg60
I614
sg61
I651
sg62
I642
sg63
I508
sg64
I647
sg65
I584
sg66
I426
sg67
I529
sg68
I632
sg69
I459
sg70
I542
sg71
I577
sg72
I382
sg73
I581
sg74
I656
sg75
I398
sg76
I620
sg77
I149
sg78
I641
sg79
I656
sg80
I553
sg81
I628
sg82
I663
sg83
I643
sg84
I458
sg85
I389
sg86
I540
sg87
I645
sg88
I647
sg89
I641
sg90
I426
sg91
I471
sg92
I361
sg93
I508
sg94
I650
sg95
I631
sg96
I547
sg97
I661
sg98
I559
sg99
I545
sg100
I646
sg101
I650
sg102
I538
ssg59
(dp158
g2
I695
sg4
I1096
sg5
I1359
sg6
I549
sg7
I1833
sg8
I1616
sg9
I2931
sg10
I566
sg11
I1876
sg12
I1639
sg13
I1462
sg14
I1607
sg15
I612
sg16
I917
sg17
I709
sg18
I1828
sg19
I856
sg20
I660
sg21
I1446
sg22
I579
sg23
I1650
sg24
I1758
sg25
I1389
sg26
I3045
sg27
I461
sg28
I1732
sg29
I1754
sg30
I864
sg31
I564
sg32
I815
sg33
I1881
sg34
I3145
sg35
I1866
sg36
I965
sg37
I648
sg38
I677
sg39
I579
sg40
I946
sg41
I247
sg42
I1208
sg43
I519
sg44
I1814
sg45
I698
sg46
I2919
sg47
I3156
sg48
I1870
sg49
I1805
sg50
I2936
sg51
I3258
sg52
I681
sg53
I616
sg54
I478
sg55
I1312
sg56
I1879
sg57
I1867
sg58
I648
sg59
I3453
sg60
I1705
sg61
I1876
sg62
I1833
sg63
I1043
sg64
I1885
sg65
I2468
sg66
I955
sg67
I515
sg68
I1339
sg69
I627
sg70
I797
sg71
I772
sg72
I430
sg73
I808
sg74
I3103
sg75
I651
sg76
I1754
sg77
I286
sg78
I1757
sg79
I2861
sg80
I640
sg81
I1797
sg82
I1093
sg83
I1855
sg84
I652
sg85
I1268
sg86
I565
sg87
I1835
sg88
I1844
sg89
I1196
sg90
I482
sg91
I523
sg92
I1354
sg93
I1514
sg94
I1860
sg95
I1835
sg96
I804
sg97
I1885
sg98
I747
sg99
I729
sg100
I1823
sg101
I1865
sg102
I599
ssg60
(dp159
g2
I672
sg4
I938
sg5
I1395
sg6
I523
sg7
I1702
sg8
I1478
sg9
I1629
sg10
I550
sg11
I1733
sg12
I1498
sg13
I1484
sg14
I1472
sg15
I542
sg16
I760
sg17
I720
sg18
I1646
sg19
I718
sg20
I604
sg21
I1330
sg22
I550
sg23
I1541
sg24
I1678
sg25
I1407
sg26
I1711
sg27
I449
sg28
I1668
sg29
I1626
sg30
I814
sg31
I540
sg32
I778
sg33
I1676
sg34
I1714
sg35
I1689
sg36
I934
sg37
I571
sg38
I665
sg39
I556
sg40
I900
sg41
I251
sg42
I1066
sg43
I478
sg44
I1650
sg45
I706
sg46
I1704
sg47
I1715
sg48
I1697
sg49
I1623
sg50
I1711
sg51
I1706
sg52
I654
sg53
I603
sg54
I495
sg55
I1212
sg56
I1694
sg57
I1673
sg58
I614
sg59
I1705
sg60
I2169
sg61
I1651
sg62
I1685
sg63
I1013
sg64
I1689
sg65
I1507
sg66
I842
sg67
I504
sg68
I1400
sg69
I607
sg70
I699
sg71
I756
sg72
I424
sg73
I728
sg74
I1696
sg75
I551
sg76
I1598
sg77
I272
sg78
I1705
sg79
I1539
sg80
I616
sg81
I1618
sg82
I988
sg83
I1699
sg84
I564
sg85
I1301
sg86
I553
sg87
I1671
sg88
I1681
sg89
I1166
sg90
I478
sg91
I510
sg92
I1222
sg93
I1454
sg94
I1696
sg95
I1704
sg96
I776
sg97
I1667
sg98
I747
sg99
I701
sg100
I1702
sg101
I1702
sg102
I582
ssg61
(dp160
g2
I689
sg4
I1023
sg5
I1336
sg6
I547
sg7
I1891
sg8
I1647
sg9
I1794
sg10
I575
sg11
I1786
sg12
I1590
sg13
I1398
sg14
I1548
sg15
I564
sg16
I839
sg17
I732
sg18
I1888
sg19
I759
sg20
I624
sg21
I1489
sg22
I575
sg23
I1670
sg24
I1734
sg25
I1397
sg26
I1909
sg27
I464
sg28
I1719
sg29
I1724
sg30
I866
sg31
I559
sg32
I808
sg33
I1953
sg34
I1904
sg35
I1858
sg36
I971
sg37
I602
sg38
I681
sg39
I574
sg40
I950
sg41
I251
sg42
I1174
sg43
I513
sg44
I1830
sg45
I712
sg46
I1898
sg47
I1906
sg48
I1944
sg49
I1789
sg50
I1900
sg51
I1869
sg52
I668
sg53
I624
sg54
I503
sg55
I1324
sg56
I1871
sg57
I1941
sg58
I651
sg59
I1876
sg60
I1651
sg61
I2322
sg62
I1861
sg63
I1069
sg64
I1959
sg65
I1672
sg66
I938
sg67
I517
sg68
I1320
sg69
I629
sg70
I714
sg71
I784
sg72
I431
sg73
I747
sg74
I1887
sg75
I577
sg76
I1703
sg77
I278
sg78
I1738
sg79
I1710
sg80
I649
sg81
I1756
sg82
I1115
sg83
I1879
sg84
I597
sg85
I1255
sg86
I559
sg87
I1940
sg88
I1909
sg89
I1228
sg90
I485
sg91
I519
sg92
I1305
sg93
I1479
sg94
I1934
sg95
I1724
sg96
I804
sg97
I1797
sg98
I762
sg99
I714
sg100
I1885
sg101
I1941
sg102
I606
ssg62
(dp161
g2
I682
sg4
I1003
sg5
I1353
sg6
I548
sg7
I2021
sg8
I1776
sg9
I1741
sg10
I564
sg11
I1801
sg12
I1629
sg13
I1418
sg14
I1574
sg15
I567
sg16
I774
sg17
I731
sg18
I1861
sg19
I713
sg20
I614
sg21
I1468
sg22
I566
sg23
I1692
sg24
I1748
sg25
I1398
sg26
I1848
sg27
I449
sg28
I1702
sg29
I1758
sg30
I817
sg31
I561
sg32
I767
sg33
I1912
sg34
I1853
sg35
I1879
sg36
I962
sg37
I591
sg38
I670
sg39
I580
sg40
I942
sg41
I247
sg42
I1108
sg43
I500
sg44
I1871
sg45
I711
sg46
I1833
sg47
I1853
sg48
I1910
sg49
I1846
sg50
I1838
sg51
I1827
sg52
I660
sg53
I618
sg54
I493
sg55
I1270
sg56
I1895
sg57
I1898
sg58
I642
sg59
I1833
sg60
I1685
sg61
I1861
sg62
I2245
sg63
I1064
sg64
I1912
sg65
I1614
sg66
I871
sg67
I520
sg68
I1339
sg69
I623
sg70
I719
sg71
I759
sg72
I420
sg73
I738
sg74
I1831
sg75
I553
sg76
I1726
sg77
I283
sg78
I1753
sg79
I1644
sg80
I637
sg81
I1754
sg82
I1020
sg83
I2026
sg84
I591
sg85
I1255
sg86
I563
sg87
I1886
sg88
I2024
sg89
I1211
sg90
I467
sg91
I508
sg92
I1305
sg93
I1484
sg94
I1896
sg95
I1725
sg96
I792
sg97
I1810
sg98
I759
sg99
I718
sg100
I1985
sg101
I1906
sg102
I597
ssg63
(dp162
g2
I540
sg4
I735
sg5
I917
sg6
I535
sg7
I1063
sg8
I856
sg9
I998
sg10
I567
sg11
I1023
sg12
I1104
sg13
I974
sg14
I963
sg15
I552
sg16
I631
sg17
I625
sg18
I1010
sg19
I572
sg20
I607
sg21
I975
sg22
I464
sg23
I1034
sg24
I1037
sg25
I953
sg26
I1056
sg27
I442
sg28
I977
sg29
I1050
sg30
I621
sg31
I548
sg32
I640
sg33
I1056
sg34
I1056
sg35
I1060
sg36
I763
sg37
I556
sg38
I600
sg39
I448
sg40
I776
sg41
I223
sg42
I798
sg43
I405
sg44
I1060
sg45
I670
sg46
I1053
sg47
I1052
sg48
I1065
sg49
I1055
sg50
I1055
sg51
I1048
sg52
I518
sg53
I527
sg54
I501
sg55
I888
sg56
I1058
sg57
I1058
sg58
I508
sg59
I1043
sg60
I1013
sg61
I1069
sg62
I1064
sg63
I1246
sg64
I1062
sg65
I902
sg66
I658
sg67
I513
sg68
I976
sg69
I597
sg70
I547
sg71
I692
sg72
I406
sg73
I611
sg74
I1034
sg75
I528
sg76
I984
sg77
I286
sg78
I1022
sg79
I990
sg80
I493
sg81
I1089
sg82
I754
sg83
I1075
sg84
I555
sg85
I824
sg86
I504
sg87
I1057
sg88
I1070
sg89
I906
sg90
I417
sg91
I452
sg92
I842
sg93
I930
sg94
I1054
sg95
I1024
sg96
I615
sg97
I1052
sg98
I666
sg99
I547
sg100
I1066
sg101
I1057
sg102
I472
ssg64
(dp163
g2
I690
sg4
I1056
sg5
I1357
sg6
I540
sg7
I1911
sg8
I1670
sg9
I1790
sg10
I566
sg11
I1853
sg12
I1623
sg13
I1445
sg14
I1573
sg15
I588
sg16
I821
sg17
I735
sg18
I1946
sg19
I772
sg20
I644
sg21
I1487
sg22
I575
sg23
I1694
sg24
I1766
sg25
I1419
sg26
I1900
sg27
I459
sg28
I1738
sg29
I1763
sg30
I829
sg31
I555
sg32
I774
sg33
I2294
sg34
I1903
sg35
I1940
sg36
I966
sg37
I638
sg38
I677
sg39
I575
sg40
I954
sg41
I252
sg42
I1120
sg43
I509
sg44
I1867
sg45
I719
sg46
I1884
sg47
I1903
sg48
I1996
sg49
I1835
sg50
I1892
sg51
I1887
sg52
I667
sg53
I613
sg54
I501
sg55
I1297
sg56
I1950
sg57
I2290
sg58
I647
sg59
I1885
sg60
I1689
sg61
I1959
sg62
I1912
sg63
I1062
sg64
I2328
sg65
I1622
sg66
I869
sg67
I513
sg68
I1351
sg69
I626
sg70
I762
sg71
I766
sg72
I422
sg73
I788
sg74
I1883
sg75
I606
sg76
I1731
sg77
I284
sg78
I1774
sg79
I1705
sg80
I644
sg81
I1767
sg82
I1047
sg83
I1914
sg84
I633
sg85
I1262
sg86
I559
sg87
I2193
sg88
I1911
sg89
I1237
sg90
I472
sg91
I527
sg92
I1318
sg93
I1504
sg94
I2004
sg95
I1790
sg96
I801
sg97
I1824
sg98
I771
sg99
I721
sg100
I1900
sg101
I2014
sg102
I599
ssg65
(dp164
g2
I624
sg4
I889
sg5
I1187
sg6
I439
sg7
I1636
sg8
I1476
sg9
I3290
sg10
I466
sg11
I1626
sg12
I1437
sg13
I1239
sg14
I1478
sg15
I454
sg16
I776
sg17
I619
sg18
I1609
sg19
I665
sg20
I527
sg21
I1319
sg22
I508
sg23
I1461
sg24
I1556
sg25
I1242
sg26
I3470
sg27
I387
sg28
I1551
sg29
I1556
sg30
I790
sg31
I453
sg32
I744
sg33
I1617
sg34
I3652
sg35
I1604
sg36
I868
sg37
I505
sg38
I613
sg39
I481
sg40
I826
sg41
I167
sg42
I1118
sg43
I434
sg44
I1590
sg45
I605
sg46
I2831
sg47
I3679
sg48
I1659
sg49
I1569
sg50
I3294
sg51
I2467
sg52
I624
sg53
I558
sg54
I391
sg55
I1171
sg56
I1621
sg57
I1612
sg58
I584
sg59
I2468
sg60
I1507
sg61
I1672
sg62
I1614
sg63
I902
sg64
I1622
sg65
I3826
sg66
I888
sg67
I450
sg68
I1156
sg69
I564
sg70
I614
sg71
I695
sg72
I354
sg73
I632
sg74
I3594
sg75
I461
sg76
I1568
sg77
I154
sg78
I1570
sg79
I3503
sg80
I557
sg81
I1599
sg82
I1001
sg83
I1632
sg84
I495
sg85
I1115
sg86
I506
sg87
I1610
sg88
I1626
sg89
I999
sg90
I403
sg91
I462
sg92
I1216
sg93
I1321
sg94
I1628
sg95
I1554
sg96
I679
sg97
I1667
sg98
I654
sg99
I617
sg100
I1628
sg101
I1627
sg102
I534
ssg66
(dp165
g2
I584
sg4
I690
sg5
I614
sg6
I435
sg7
I868
sg8
I730
sg9
I984
sg10
I535
sg11
I878
sg12
I854
sg13
I654
sg14
I857
sg15
I442
sg16
I728
sg17
I465
sg18
I857
sg19
I764
sg20
I492
sg21
I886
sg22
I379
sg23
I858
sg24
I842
sg25
I853
sg26
I969
sg27
I493
sg28
I886
sg29
I856
sg30
I930
sg31
I447
sg32
I1031
sg33
I869
sg34
I968
sg35
I861
sg36
I604
sg37
I473
sg38
I540
sg39
I434
sg40
I627
sg41
I317
sg42
I820
sg43
I334
sg44
I875
sg45
I495
sg46
I965
sg47
I970
sg48
I886
sg49
I869
sg50
I966
sg51
I962
sg52
I538
sg53
I458
sg54
I372
sg55
I855
sg56
I872
sg57
I867
sg58
I426
sg59
I955
sg60
I842
sg61
I938
sg62
I871
sg63
I658
sg64
I869
sg65
I888
sg66
I1749
sg67
I436
sg68
I663
sg69
I486
sg70
I556
sg71
I610
sg72
I403
sg73
I549
sg74
I965
sg75
I596
sg76
I854
sg77
I173
sg78
I854
sg79
I974
sg80
I421
sg81
I876
sg82
I834
sg83
I863
sg84
I502
sg85
I688
sg86
I410
sg87
I871
sg88
I879
sg89
I613
sg90
I406
sg91
I378
sg92
I738
sg93
I748
sg94
I883
sg95
I836
sg96
I632
sg97
I879
sg98
I490
sg99
I554
sg100
I866
sg101
I881
sg102
I414
ssg67
(dp166
g2
I398
sg4
I485
sg5
I457
sg6
I749
sg7
I515
sg8
I372
sg9
I500
sg10
I406
sg11
I519
sg12
I519
sg13
I496
sg14
I496
sg15
I759
sg16
I509
sg17
I455
sg18
I478
sg19
I363
sg20
I470
sg21
I504
sg22
I447
sg23
I509
sg24
I519
sg25
I519
sg26
I518
sg27
I387
sg28
I495
sg29
I508
sg30
I396
sg31
I764
sg32
I433
sg33
I508
sg34
I514
sg35
I518
sg36
I520
sg37
I435
sg38
I629
sg39
I355
sg40
I499
sg41
I200
sg42
I475
sg43
I399
sg44
I503
sg45
I495
sg46
I518
sg47
I517
sg48
I511
sg49
I506
sg50
I518
sg51
I515
sg52
I378
sg53
I627
sg54
I375
sg55
I515
sg56
I519
sg57
I510
sg58
I529
sg59
I515
sg60
I504
sg61
I517
sg62
I520
sg63
I513
sg64
I513
sg65
I450
sg66
I436
sg67
I771
sg68
I492
sg69
I478
sg70
I448
sg71
I514
sg72
I359
sg73
I528
sg74
I517
sg75
I367
sg76
I483
sg77
I156
sg78
I521
sg79
I517
sg80
I432
sg81
I516
sg82
I519
sg83
I519
sg84
I480
sg85
I399
sg86
I513
sg87
I508
sg88
I519
sg89
I511
sg90
I367
sg91
I416
sg92
I371
sg93
I507
sg94
I520
sg95
I513
sg96
I499
sg97
I524
sg98
I500
sg99
I449
sg100
I519
sg101
I521
sg102
I422
ssg68
(dp167
g2
I666
sg4
I848
sg5
I1432
sg6
I517
sg7
I1354
sg8
I1136
sg9
I1290
sg10
I549
sg11
I1352
sg12
I1135
sg13
I1576
sg14
I1148
sg15
I538
sg16
I597
sg17
I700
sg18
I1305
sg19
I620
sg20
I590
sg21
I1124
sg22
I540
sg23
I1288
sg24
I1355
sg25
I1257
sg26
I1364
sg27
I441
sg28
I1329
sg29
I1273
sg30
I663
sg31
I529
sg32
I706
sg33
I1344
sg34
I1361
sg35
I1368
sg36
I918
sg37
I571
sg38
I656
sg39
I540
sg40
I893
sg41
I242
sg42
I923
sg43
I489
sg44
I1320
sg45
I663
sg46
I1359
sg47
I1363
sg48
I1342
sg49
I1307
sg50
I1358
sg51
I1340
sg52
I652
sg53
I603
sg54
I483
sg55
I1033
sg56
I1366
sg57
I1339
sg58
I632
sg59
I1339
sg60
I1400
sg61
I1320
sg62
I1339
sg63
I976
sg64
I1351
sg65
I1156
sg66
I663
sg67
I492
sg68
I1721
sg69
I604
sg70
I692
sg71
I742
sg72
I400
sg73
I639
sg74
I1356
sg75
I532
sg76
I1245
sg77
I265
sg78
I1343
sg79
I1204
sg80
I621
sg81
I1262
sg82
I821
sg83
I1337
sg84
I561
sg85
I1055
sg86
I543
sg87
I1332
sg88
I1349
sg89
I1153
sg90
I453
sg91
I501
sg92
I863
sg93
I1080
sg94
I1341
sg95
I1384
sg96
I702
sg97
I1317
sg98
I721
sg99
I688
sg100
I1352
sg101
I1350
sg102
I589
ssg69
(dp168
g2
I423
sg4
I532
sg5
I558
sg6
I471
sg7
I618
sg8
I479
sg9
I607
sg10
I399
sg11
I634
sg12
I636
sg13
I606
sg14
I593
sg15
I478
sg16
I463
sg17
I471
sg18
I594
sg19
I386
sg20
I425
sg21
I636
sg22
I423
sg23
I625
sg24
I618
sg25
I611
sg26
I633
sg27
I383
sg28
I611
sg29
I625
sg30
I434
sg31
I478
sg32
I472
sg33
I624
sg34
I634
sg35
I635
sg36
I551
sg37
I457
sg38
I452
sg39
I375
sg40
I536
sg41
I182
sg42
I566
sg43
I351
sg44
I620
sg45
I509
sg46
I634
sg47
I631
sg48
I624
sg49
I610
sg50
I633
sg51
I624
sg52
I398
sg53
I484
sg54
I363
sg55
I620
sg56
I634
sg57
I624
sg58
I459
sg59
I627
sg60
I607
sg61
I629
sg62
I623
sg63
I597
sg64
I626
sg65
I564
sg66
I486
sg67
I478
sg68
I604
sg69
I919
sg70
I471
sg71
I526
sg72
I346
sg73
I487
sg74
I638
sg75
I349
sg76
I594
sg77
I185
sg78
I628
sg79
I633
sg80
I425
sg81
I629
sg82
I546
sg83
I624
sg84
I463
sg85
I499
sg86
I446
sg87
I629
sg88
I627
sg89
I518
sg90
I355
sg91
I387
sg92
I495
sg93
I630
sg94
I619
sg95
I623
sg96
I530
sg97
I613
sg98
I506
sg99
I469
sg100
I618
sg101
I618
sg102
I417
ssg70
(dp169
g2
I718
sg4
I684
sg5
I644
sg6
I480
sg7
I719
sg8
I578
sg9
I775
sg10
I425
sg11
I764
sg12
I570
sg13
I721
sg14
I693
sg15
I547
sg16
I523
sg17
I549
sg18
I694
sg19
I581
sg20
I458
sg21
I721
sg22
I475
sg23
I699
sg24
I700
sg25
I696
sg26
I804
sg27
I426
sg28
I694
sg29
I701
sg30
I475
sg31
I487
sg32
I600
sg33
I759
sg34
I796
sg35
I765
sg36
I684
sg37
I559
sg38
I517
sg39
I663
sg40
I642
sg41
I210
sg42
I654
sg43
I416
sg44
I697
sg45
I545
sg46
I792
sg47
I798
sg48
I722
sg49
I691
sg50
I792
sg51
I813
sg52
I631
sg53
I535
sg54
I382
sg55
I714
sg56
I765
sg57
I761
sg58
I542
sg59
I797
sg60
I699
sg61
I714
sg62
I719
sg63
I547
sg64
I762
sg65
I614
sg66
I556
sg67
I448
sg68
I692
sg69
I471
sg70
I1295
sg71
I517
sg72
I389
sg73
I581
sg74
I800
sg75
I563
sg76
I697
sg77
I214
sg78
I693
sg79
I799
sg80
I585
sg81
I690
sg82
I588
sg83
I722
sg84
I604
sg85
I430
sg86
I474
sg87
I722
sg88
I728
sg89
I700
sg90
I439
sg91
I435
sg92
I445
sg93
I559
sg94
I725
sg95
I745
sg96
I624
sg97
I728
sg98
I570
sg99
I1056
sg100
I717
sg101
I730
sg102
I541
ssg71
(dp170
g2
I572
sg4
I710
sg5
I684
sg6
I524
sg7
I762
sg8
I597
sg9
I776
sg10
I532
sg11
I775
sg12
I687
sg13
I734
sg14
I739
sg15
I525
sg16
I621
sg17
I502
sg18
I742
sg19
I534
sg20
I604
sg21
I751
sg22
I531
sg23
I728
sg24
I778
sg25
I756
sg26
I778
sg27
I428
sg28
I746
sg29
I764
sg30
I576
sg31
I524
sg32
I600
sg33
I763
sg34
I771
sg35
I762
sg36
I708
sg37
I478
sg38
I694
sg39
I436
sg40
I700
sg41
I231
sg42
I722
sg43
I505
sg44
I756
sg45
I544
sg46
I772
sg47
I775
sg48
I767
sg49
I756
sg50
I773
sg51
I769
sg52
I571
sg53
I654
sg54
I402
sg55
I747
sg56
I761
sg57
I762
sg58
I577
sg59
I772
sg60
I756
sg61
I784
sg62
I759
sg63
I692
sg64
I766
sg65
I695
sg66
I610
sg67
I514
sg68
I742
sg69
I526
sg70
I517
sg71
I1181
sg72
I397
sg73
I655
sg74
I772
sg75
I513
sg76
I742
sg77
I158
sg78
I769
sg79
I775
sg80
I512
sg81
I750
sg82
I783
sg83
I765
sg84
I485
sg85
I553
sg86
I565
sg87
I760
sg88
I767
sg89
I700
sg90
I400
sg91
I436
sg92
I528
sg93
I594
sg94
I768
sg95
I758
sg96
I568
sg97
I772
sg98
I542
sg99
I519
sg100
I759
sg101
I769
sg102
I493
ssg72
(dp171
g2
I393
sg4
I427
sg5
I362
sg6
I364
sg7
I427
sg8
I283
sg9
I434
sg10
I408
sg11
I428
sg12
I404
sg13
I399
sg14
I423
sg15
I366
sg16
I364
sg17
I392
sg18
I429
sg19
I469
sg20
I368
sg21
I421
sg22
I377
sg23
I431
sg24
I431
sg25
I423
sg26
I430
sg27
I490
sg28
I417
sg29
I422
sg30
I499
sg31
I367
sg32
I394
sg33
I420
sg34
I429
sg35
I423
sg36
I416
sg37
I396
sg38
I374
sg39
I363
sg40
I411
sg41
I256
sg42
I402
sg43
I366
sg44
I426
sg45
I423
sg46
I428
sg47
I433
sg48
I430
sg49
I429
sg50
I428
sg51
I425
sg52
I369
sg53
I380
sg54
I329
sg55
I418
sg56
I423
sg57
I421
sg58
I382
sg59
I430
sg60
I424
sg61
I431
sg62
I420
sg63
I406
sg64
I422
sg65
I354
sg66
I403
sg67
I359
sg68
I400
sg69
I346
sg70
I389
sg71
I397
sg72
I669
sg73
I362
sg74
I430
sg75
I484
sg76
I415
sg77
I114
sg78
I430
sg79
I431
sg80
I405
sg81
I417
sg82
I423
sg83
I433
sg84
I398
sg85
I279
sg86
I356
sg87
I419
sg88
I428
sg89
I432
sg90
I570
sg91
I369
sg92
I267
sg93
I401
sg94
I435
sg95
I415
sg96
I435
sg97
I431
sg98
I428
sg99
I390
sg100
I427
sg101
I434
sg102
I395
ssg73
(dp172
g2
I437
sg4
I748
sg5
I570
sg6
I561
sg7
I740
sg8
I571
sg9
I795
sg10
I416
sg11
I767
sg12
I687
sg13
I666
sg14
I700
sg15
I645
sg16
I742
sg17
I510
sg18
I725
sg19
I575
sg20
I643
sg21
I729
sg22
I516
sg23
I694
sg24
I738
sg25
I725
sg26
I810
sg27
I386
sg28
I731
sg29
I754
sg30
I519
sg31
I571
sg32
I508
sg33
I783
sg34
I807
sg35
I776
sg36
I556
sg37
I543
sg38
I605
sg39
I402
sg40
I591
sg41
I226
sg42
I668
sg43
I497
sg44
I729
sg45
I511
sg46
I807
sg47
I806
sg48
I752
sg49
I723
sg50
I808
sg51
I819
sg52
I412
sg53
I573
sg54
I403
sg55
I738
sg56
I773
sg57
I787
sg58
I581
sg59
I808
sg60
I728
sg61
I747
sg62
I738
sg63
I611
sg64
I788
sg65
I632
sg66
I549
sg67
I528
sg68
I639
sg69
I487
sg70
I581
sg71
I655
sg72
I362
sg73
I1328
sg74
I823
sg75
I485
sg76
I714
sg77
I196
sg78
I735
sg79
I807
sg80
I480
sg81
I717
sg82
I755
sg83
I749
sg84
I566
sg85
I510
sg86
I572
sg87
I751
sg88
I730
sg89
I589
sg90
I359
sg91
I407
sg92
I528
sg93
I671
sg94
I746
sg95
I763
sg96
I607
sg97
I764
sg98
I512
sg99
I508
sg100
I741
sg101
I749
sg102
I444
ssg74
(dp173
g2
I698
sg4
I1111
sg5
I1378
sg6
I548
sg7
I1853
sg8
I1614
sg9
I4050
sg10
I566
sg11
I1872
sg12
I1636
sg13
I1477
sg14
I1616
sg15
I614
sg16
I936
sg17
I713
sg18
I1824
sg19
I864
sg20
I671
sg21
I1473
sg22
I581
sg23
I1685
sg24
I1768
sg25
I1395
sg26
I4292
sg27
I469
sg28
I1736
sg29
I1815
sg30
I872
sg31
I563
sg32
I826
sg33
I1879
sg34
I4454
sg35
I1860
sg36
I967
sg37
I657
sg38
I681
sg39
I586
sg40
I961
sg41
I255
sg42
I1223
sg43
I531
sg44
I1818
sg45
I701
sg46
I3652
sg47
I4487
sg48
I1869
sg49
I1794
sg50
I4109
sg51
I3050
sg52
I684
sg53
I617
sg54
I485
sg55
I1328
sg56
I1875
sg57
I1870
sg58
I656
sg59
I3103
sg60
I1696
sg61
I1887
sg62
I1831
sg63
I1034
sg64
I1883
sg65
I3594
sg66
I965
sg67
I517
sg68
I1356
sg69
I638
sg70
I800
sg71
I772
sg72
I430
sg73
I823
sg74
I4729
sg75
I655
sg76
I1765
sg77
I285
sg78
I1750
sg79
I4025
sg80
I650
sg81
I1803
sg82
I1110
sg83
I1842
sg84
I657
sg85
I1275
sg86
I579
sg87
I1829
sg88
I1876
sg89
I1197
sg90
I486
sg91
I525
sg92
I1360
sg93
I1507
sg94
I1854
sg95
I1829
sg96
I805
sg97
I1905
sg98
I749
sg99
I733
sg100
I1829
sg101
I1866
sg102
I611
ssg75
(dp174
g2
I494
sg4
I633
sg5
I472
sg6
I397
sg7
I555
sg8
I406
sg9
I654
sg10
I574
sg11
I608
sg12
I539
sg13
I563
sg14
I557
sg15
I451
sg16
I583
sg17
I406
sg18
I566
sg19
I956
sg20
I544
sg21
I558
sg22
I381
sg23
I559
sg24
I561
sg25
I544
sg26
I654
sg27
I553
sg28
I545
sg29
I563
sg30
I713
sg31
I400
sg32
I598
sg33
I606
sg34
I654
sg35
I603
sg36
I508
sg37
I535
sg38
I485
sg39
I386
sg40
I532
sg41
I315
sg42
I507
sg43
I373
sg44
I569
sg45
I432
sg46
I645
sg47
I652
sg48
I560
sg49
I569
sg50
I645
sg51
I664
sg52
I454
sg53
I394
sg54
I345
sg55
I528
sg56
I603
sg57
I605
sg58
I398
sg59
I651
sg60
I551
sg61
I577
sg62
I553
sg63
I528
sg64
I606
sg65
I461
sg66
I596
sg67
I367
sg68
I532
sg69
I349
sg70
I563
sg71
I513
sg72
I484
sg73
I485
sg74
I655
sg75
I1053
sg76
I551
sg77
I132
sg78
I552
sg79
I653
sg80
I446
sg81
I562
sg82
I553
sg83
I554
sg84
I572
sg85
I372
sg86
I356
sg87
I556
sg88
I565
sg89
I571
sg90
I492
sg91
I401
sg92
I391
sg93
I427
sg94
I565
sg95
I600
sg96
I453
sg97
I582
sg98
I442
sg99
I435
sg100
I553
sg101
I574
sg102
I410
ssg76
(dp175
g2
I676
sg4
I971
sg5
I1256
sg6
I521
sg7
I1725
sg8
I1560
sg9
I1763
sg10
I547
sg11
I1697
sg12
I1522
sg13
I1321
sg14
I1512
sg15
I528
sg16
I772
sg17
I687
sg18
I1749
sg19
I702
sg20
I599
sg21
I1376
sg22
I561
sg23
I1587
sg24
I1649
sg25
I1328
sg26
I1766
sg27
I448
sg28
I1676
sg29
I1676
sg30
I783
sg31
I535
sg32
I754
sg33
I1732
sg34
I1771
sg35
I1709
sg36
I919
sg37
I562
sg38
I656
sg39
I541
sg40
I889
sg41
I242
sg42
I1103
sg43
I476
sg44
I1696
sg45
I666
sg46
I1763
sg47
I1778
sg48
I1764
sg49
I1675
sg50
I1768
sg51
I1752
sg52
I641
sg53
I582
sg54
I462
sg55
I1211
sg56
I1725
sg57
I1725
sg58
I620
sg59
I1754
sg60
I1598
sg61
I1703
sg62
I1726
sg63
I984
sg64
I1731
sg65
I1568
sg66
I854
sg67
I483
sg68
I1245
sg69
I594
sg70
I697
sg71
I742
sg72
I415
sg73
I714
sg74
I1765
sg75
I551
sg76
I2252
sg77
I259
sg78
I1665
sg79
I1601
sg80
I599
sg81
I1661
sg82
I1020
sg83
I1742
sg84
I550
sg85
I1182
sg86
I539
sg87
I1724
sg88
I1730
sg89
I1118
sg90
I447
sg91
I498
sg92
I1261
sg93
I1406
sg94
I1741
sg95
I1642
sg96
I760
sg97
I1727
sg98
I716
sg99
I699
sg100
I1726
sg101
I1740
sg102
I568
ssg77
(dp176
g2
I107
sg4
I163
sg5
I231
sg6
I176
sg7
I285
sg8
I165
sg9
I239
sg10
I122
sg11
I275
sg12
I281
sg13
I270
sg14
I257
sg15
I192
sg16
I170
sg17
I238
sg18
I271
sg19
I131
sg20
I135
sg21
I280
sg22
I139
sg23
I268
sg24
I280
sg25
I277
sg26
I284
sg27
I115
sg28
I276
sg29
I284
sg30
I119
sg31
I189
sg32
I168
sg33
I285
sg34
I286
sg35
I279
sg36
I225
sg37
I125
sg38
I155
sg39
I128
sg40
I246
sg41
I120
sg42
I190
sg43
I118
sg44
I280
sg45
I235
sg46
I281
sg47
I287
sg48
I279
sg49
I280
sg50
I282
sg51
I286
sg52
I101
sg53
I152
sg54
I157
sg55
I260
sg56
I280
sg57
I282
sg58
I149
sg59
I286
sg60
I272
sg61
I278
sg62
I283
sg63
I286
sg64
I284
sg65
I154
sg66
I173
sg67
I156
sg68
I265
sg69
I185
sg70
I214
sg71
I158
sg72
I114
sg73
I196
sg74
I285
sg75
I132
sg76
I259
sg77
I332
sg78
I282
sg79
I286
sg80
I119
sg81
I285
sg82
I187
sg83
I284
sg84
I168
sg85
I200
sg86
I159
sg87
I283
sg88
I287
sg89
I265
sg90
I120
sg91
I105
sg92
I220
sg93
I274
sg94
I287
sg95
I274
sg96
I195
sg97
I286
sg98
I236
sg99
I215
sg100
I290
sg101
I287
sg102
I116
ssg78
(dp177
g2
I668
sg4
I980
sg5
I1371
sg6
I542
sg7
I1773
sg8
I1551
sg9
I1672
sg10
I567
sg11
I2003
sg12
I1554
sg13
I1448
sg14
I1549
sg15
I563
sg16
I769
sg17
I727
sg18
I1740
sg19
I718
sg20
I602
sg21
I1410
sg22
I579
sg23
I1597
sg24
I1754
sg25
I1431
sg26
I1762
sg27
I456
sg28
I1885
sg29
I1688
sg30
I819
sg31
I558
sg32
I765
sg33
I1775
sg34
I1773
sg35
I1761
sg36
I962
sg37
I571
sg38
I676
sg39
I544
sg40
I939
sg41
I247
sg42
I1085
sg43
I497
sg44
I1732
sg45
I707
sg46
I1760
sg47
I1771
sg48
I1783
sg49
I1723
sg50
I1759
sg51
I1747
sg52
I655
sg53
I619
sg54
I490
sg55
I1255
sg56
I1779
sg57
I1764
sg58
I641
sg59
I1757
sg60
I1705
sg61
I1738
sg62
I1753
sg63
I1022
sg64
I1774
sg65
I1570
sg66
I854
sg67
I521
sg68
I1343
sg69
I628
sg70
I693
sg71
I769
sg72
I430
sg73
I735
sg74
I1750
sg75
I552
sg76
I1665
sg77
I282
sg78
I2210
sg79
I1612
sg80
I613
sg81
I1690
sg82
I1029
sg83
I1760
sg84
I570
sg85
I1285
sg86
I557
sg87
I1762
sg88
I1754
sg89
I1202
sg90
I479
sg91
I530
sg92
I1282
sg93
I1639
sg94
I1788
sg95
I1755
sg96
I793
sg97
I1738
sg98
I760
sg99
I694
sg100
I1801
sg101
I1786
sg102
I578
ssg79
(dp178
g2
I698
sg4
I1118
sg5
I1198
sg6
I550
sg7
I1667
sg8
I1448
sg9
I3703
sg10
I570
sg11
I1710
sg12
I1464
sg13
I1301
sg14
I1543
sg15
I616
sg16
I921
sg17
I714
sg18
I1640
sg19
I860
sg20
I666
sg21
I1468
sg22
I586
sg23
I1500
sg24
I1592
sg25
I1398
sg26
I3864
sg27
I465
sg28
I1584
sg29
I1584
sg30
I873
sg31
I565
sg32
I823
sg33
I1701
sg34
I4165
sg35
I1667
sg36
I971
sg37
I646
sg38
I685
sg39
I584
sg40
I963
sg41
I250
sg42
I1214
sg43
I520
sg44
I1636
sg45
I700
sg46
I3248
sg47
I4180
sg48
I1691
sg49
I1625
sg50
I3703
sg51
I2812
sg52
I685
sg53
I625
sg54
I489
sg55
I1312
sg56
I1682
sg57
I1701
sg58
I656
sg59
I2861
sg60
I1539
sg61
I1710
sg62
I1644
sg63
I990
sg64
I1705
sg65
I3503
sg66
I974
sg67
I517
sg68
I1204
sg69
I633
sg70
I799
sg71
I775
sg72
I431
sg73
I807
sg74
I4025
sg75
I653
sg76
I1601
sg77
I286
sg78
I1612
sg79
I4264
sg80
I641
sg81
I1616
sg82
I1092
sg83
I1660
sg84
I652
sg85
I1105
sg86
I574
sg87
I1652
sg88
I1667
sg89
I1072
sg90
I490
sg91
I527
sg92
I1271
sg93
I1348
sg94
I1663
sg95
I1652
sg96
I804
sg97
I1734
sg98
I748
sg99
I735
sg100
I1663
sg101
I1667
sg102
I603
ssg80
(dp179
g2
I540
sg4
I620
sg5
I571
sg6
I452
sg7
I628
sg8
I470
sg9
I642
sg10
I450
sg11
I623
sg12
I514
sg13
I624
sg14
I610
sg15
I468
sg16
I403
sg17
I485
sg18
I609
sg19
I472
sg20
I441
sg21
I621
sg22
I475
sg23
I614
sg24
I630
sg25
I623
sg26
I642
sg27
I439
sg28
I596
sg29
I616
sg30
I502
sg31
I452
sg32
I483
sg33
I636
sg34
I643
sg35
I639
sg36
I594
sg37
I725
sg38
I496
sg39
I481
sg40
I545
sg41
I223
sg42
I560
sg43
I454
sg44
I621
sg45
I488
sg46
I647
sg47
I641
sg48
I634
sg49
I617
sg50
I648
sg51
I642
sg52
I539
sg53
I511
sg54
I356
sg55
I605
sg56
I637
sg57
I637
sg58
I553
sg59
I640
sg60
I616
sg61
I649
sg62
I637
sg63
I493
sg64
I644
sg65
I557
sg66
I421
sg67
I432
sg68
I621
sg69
I425
sg70
I585
sg71
I512
sg72
I405
sg73
I480
sg74
I650
sg75
I446
sg76
I599
sg77
I119
sg78
I613
sg79
I641
sg80
I987
sg81
I617
sg82
I576
sg83
I626
sg84
I673
sg85
I354
sg86
I454
sg87
I632
sg88
I640
sg89
I621
sg90
I453
sg91
I463
sg92
I357
sg93
I495
sg94
I633
sg95
I619
sg96
I597
sg97
I636
sg98
I533
sg99
I573
sg100
I626
sg101
I640
sg102
I845
ssg81
(dp180
g2
I666
sg4
I974
sg5
I1274
sg6
I537
sg7
I1740
sg8
I1520
sg9
I1716
sg10
I557
sg11
I1720
sg12
I1830
sg13
I1357
sg14
I1706
sg15
I553
sg16
I792
sg17
I707
sg18
I1741
sg19
I724
sg20
I607
sg21
I1374
sg22
I553
sg23
I1589
sg24
I1695
sg25
I1344
sg26
I1822
sg27
I456
sg28
I1664
sg29
I1792
sg30
I815
sg31
I551
sg32
I765
sg33
I1765
sg34
I1819
sg35
I1752
sg36
I927
sg37
I575
sg38
I666
sg39
I534
sg40
I894
sg41
I236
sg42
I1090
sg43
I496
sg44
I1748
sg45
I689
sg46
I1809
sg47
I1817
sg48
I1787
sg49
I1725
sg50
I1815
sg51
I1801
sg52
I632
sg53
I597
sg54
I498
sg55
I1283
sg56
I1769
sg57
I1755
sg58
I628
sg59
I1797
sg60
I1618
sg61
I1756
sg62
I1754
sg63
I1089
sg64
I1767
sg65
I1599
sg66
I876
sg67
I516
sg68
I1262
sg69
I629
sg70
I690
sg71
I750
sg72
I417
sg73
I717
sg74
I1803
sg75
I562
sg76
I1661
sg77
I285
sg78
I1690
sg79
I1616
sg80
I617
sg81
I2255
sg82
I1040
sg83
I1765
sg84
I578
sg85
I1255
sg86
I557
sg87
I1746
sg88
I1775
sg89
I1138
sg90
I469
sg91
I509
sg92
I1491
sg93
I1476
sg94
I1762
sg95
I1681
sg96
I758
sg97
I1732
sg98
I736
sg99
I686
sg100
I1742
sg101
I1782
sg102
I577
ssg82
(dp181
g2
I629
sg4
I914
sg5
I760
sg6
I558
sg7
I1038
sg8
I861
sg9
I1107
sg10
I566
sg11
I1044
sg12
I936
sg13
I813
sg14
I1033
sg15
I557
sg16
I938
sg17
I591
sg18
I1041
sg19
I744
sg20
I693
sg21
I1060
sg22
I571
sg23
I1034
sg24
I1031
sg25
I1003
sg26
I1100
sg27
I463
sg28
I1045
sg29
I1037
sg30
I808
sg31
I552
sg32
I754
sg33
I1044
sg34
I1098
sg35
I1041
sg36
I759
sg37
I545
sg38
I678
sg39
I479
sg40
I742
sg41
I247
sg42
I984
sg43
I517
sg44
I1043
sg45
I573
sg46
I1099
sg47
I1094
sg48
I1063
sg49
I1028
sg50
I1100
sg51
I1099
sg52
I617
sg53
I609
sg54
I414
sg55
I1019
sg56
I1050
sg57
I1043
sg58
I663
sg59
I1093
sg60
I988
sg61
I1115
sg62
I1020
sg63
I754
sg64
I1047
sg65
I1001
sg66
I834
sg67
I519
sg68
I821
sg69
I546
sg70
I588
sg71
I783
sg72
I423
sg73
I755
sg74
I1110
sg75
I553
sg76
I1020
sg77
I187
sg78
I1029
sg79
I1092
sg80
I576
sg81
I1040
sg82
I1704
sg83
I1047
sg84
I531
sg85
I739
sg86
I555
sg87
I1045
sg88
I1042
sg89
I785
sg90
I467
sg91
I518
sg92
I776
sg93
I840
sg94
I1048
sg95
I992
sg96
I750
sg97
I1069
sg98
I623
sg99
I591
sg100
I1046
sg101
I1043
sg102
I552
ssg83
(dp182
g2
I690
sg4
I1005
sg5
I1351
sg6
I546
sg7
I2042
sg8
I1808
sg9
I1762
sg10
I573
sg11
I1806
sg12
I1631
sg13
I1418
sg14
I1568
sg15
I564
sg16
I791
sg17
I732
sg18
I1875
sg19
I719
sg20
I616
sg21
I1501
sg22
I570
sg23
I1725
sg24
I1744
sg25
I1395
sg26
I1869
sg27
I458
sg28
I1730
sg29
I1760
sg30
I823
sg31
I559
sg32
I764
sg33
I1913
sg34
I1874
sg35
I1893
sg36
I958
sg37
I584
sg38
I673
sg39
I577
sg40
I938
sg41
I244
sg42
I1128
sg43
I497
sg44
I1876
sg45
I714
sg46
I1855
sg47
I1875
sg48
I1941
sg49
I1841
sg50
I1859
sg51
I1848
sg52
I671
sg53
I627
sg54
I492
sg55
I1274
sg56
I1908
sg57
I1899
sg58
I643
sg59
I1855
sg60
I1699
sg61
I1879
sg62
I2026
sg63
I1075
sg64
I1914
sg65
I1632
sg66
I863
sg67
I519
sg68
I1337
sg69
I624
sg70
I722
sg71
I765
sg72
I433
sg73
I749
sg74
I1842
sg75
I554
sg76
I1742
sg77
I284
sg78
I1760
sg79
I1660
sg80
I626
sg81
I1765
sg82
I1047
sg83
I2237
sg84
I584
sg85
I1270
sg86
I567
sg87
I1907
sg88
I2030
sg89
I1203
sg90
I480
sg91
I518
sg92
I1321
sg93
I1501
sg94
I1929
sg95
I1746
sg96
I807
sg97
I1826
sg98
I767
sg99
I724
sg100
I1989
sg101
I1931
sg102
I592
ssg84
(dp183
g2
I433
sg4
I601
sg5
I510
sg6
I507
sg7
I585
sg8
I430
sg9
I640
sg10
I485
sg11
I623
sg12
I575
sg13
I592
sg14
I563
sg15
I572
sg16
I507
sg17
I494
sg18
I556
sg19
I548
sg20
I499
sg21
I574
sg22
I424
sg23
I578
sg24
I585
sg25
I571
sg26
I653
sg27
I462
sg28
I548
sg29
I579
sg30
I465
sg31
I512
sg32
I502
sg33
I630
sg34
I651
sg35
I631
sg36
I530
sg37
I830
sg38
I470
sg39
I417
sg40
I532
sg41
I244
sg42
I487
sg43
I389
sg44
I590
sg45
I528
sg46
I652
sg47
I649
sg48
I590
sg49
I587
sg50
I653
sg51
I659
sg52
I407
sg53
I481
sg54
I396
sg55
I553
sg56
I630
sg57
I626
sg58
I458
sg59
I652
sg60
I564
sg61
I597
sg62
I591
sg63
I555
sg64
I633
sg65
I495
sg66
I502
sg67
I480
sg68
I561
sg69
I463
sg70
I604
sg71
I485
sg72
I398
sg73
I566
sg74
I657
sg75
I572
sg76
I550
sg77
I168
sg78
I570
sg79
I652
sg80
I673
sg81
I578
sg82
I531
sg83
I584
sg84
I1015
sg85
I406
sg86
I452
sg87
I582
sg88
I589
sg89
I578
sg90
I417
sg91
I422
sg92
I430
sg93
I546
sg94
I595
sg95
I620
sg96
I556
sg97
I595
sg98
I535
sg99
I504
sg100
I578
sg101
I602
sg102
I603
ssg85
(dp184
g2
I440
sg4
I654
sg5
I1207
sg6
I395
sg7
I1285
sg8
I1178
sg9
I1208
sg10
I422
sg11
I1301
sg12
I1247
sg13
I1108
sg14
I1098
sg15
I406
sg16
I637
sg17
I465
sg18
I1236
sg19
I501
sg20
I465
sg21
I984
sg22
I348
sg23
I1190
sg24
I1268
sg25
I1096
sg26
I1289
sg27
I315
sg28
I1246
sg29
I1220
sg30
I606
sg31
I409
sg32
I571
sg33
I1254
sg34
I1290
sg35
I1273
sg36
I632
sg37
I411
sg38
I486
sg39
I342
sg40
I606
sg41
I96
sg42
I789
sg43
I271
sg44
I1262
sg45
I503
sg46
I1288
sg47
I1289
sg48
I1293
sg49
I1263
sg50
I1288
sg51
I1279
sg52
I418
sg53
I407
sg54
I337
sg55
I901
sg56
I1280
sg57
I1246
sg58
I389
sg59
I1268
sg60
I1301
sg61
I1255
sg62
I1255
sg63
I824
sg64
I1262
sg65
I1115
sg66
I688
sg67
I399
sg68
I1055
sg69
I499
sg70
I430
sg71
I553
sg72
I279
sg73
I510
sg74
I1275
sg75
I372
sg76
I1182
sg77
I200
sg78
I1285
sg79
I1105
sg80
I354
sg81
I1255
sg82
I739
sg83
I1270
sg84
I406
sg85
I1639
sg86
I372
sg87
I1254
sg88
I1250
sg89
I781
sg90
I300
sg91
I321
sg92
I1134
sg93
I1207
sg94
I1281
sg95
I1286
sg96
I551
sg97
I1254
sg98
I501
sg99
I429
sg100
I1281
sg101
I1289
sg102
I345
ssg86
(dp185
g2
I426
sg4
I513
sg5
I484
sg6
I503
sg7
I567
sg8
I412
sg9
I565
sg10
I389
sg11
I554
sg12
I502
sg13
I546
sg14
I541
sg15
I517
sg16
I487
sg17
I466
sg18
I534
sg19
I361
sg20
I480
sg21
I561
sg22
I507
sg23
I543
sg24
I561
sg25
I556
sg26
I578
sg27
I373
sg28
I544
sg29
I554
sg30
I390
sg31
I514
sg32
I432
sg33
I556
sg34
I574
sg35
I563
sg36
I548
sg37
I408
sg38
I574
sg39
I386
sg40
I531
sg41
I203
sg42
I519
sg43
I536
sg44
I545
sg45
I493
sg46
I577
sg47
I576
sg48
I558
sg49
I548
sg50
I577
sg51
I570
sg52
I413
sg53
I576
sg54
I387
sg55
I556
sg56
I563
sg57
I557
sg58
I540
sg59
I565
sg60
I553
sg61
I559
sg62
I563
sg63
I504
sg64
I559
sg65
I506
sg66
I410
sg67
I513
sg68
I543
sg69
I446
sg70
I474
sg71
I565
sg72
I356
sg73
I572
sg74
I579
sg75
I356
sg76
I539
sg77
I159
sg78
I557
sg79
I574
sg80
I454
sg81
I557
sg82
I555
sg83
I567
sg84
I452
sg85
I372
sg86
I840
sg87
I556
sg88
I564
sg89
I552
sg90
I355
sg91
I396
sg92
I350
sg93
I497
sg94
I564
sg95
I548
sg96
I489
sg97
I571
sg98
I489
sg99
I477
sg100
I568
sg101
I564
sg102
I433
ssg87
(dp186
g2
I699
sg4
I1007
sg5
I1341
sg6
I536
sg7
I1896
sg8
I1665
sg9
I1738
sg10
I566
sg11
I1806
sg12
I1611
sg13
I1408
sg14
I1561
sg15
I554
sg16
I781
sg17
I729
sg18
I1940
sg19
I724
sg20
I612
sg21
I1484
sg22
I574
sg23
I1686
sg24
I1750
sg25
I1412
sg26
I1847
sg27
I454
sg28
I1720
sg29
I1743
sg30
I827
sg31
I549
sg32
I772
sg33
I2185
sg34
I1850
sg35
I1876
sg36
I963
sg37
I590
sg38
I670
sg39
I574
sg40
I946
sg41
I247
sg42
I1120
sg43
I497
sg44
I1844
sg45
I712
sg46
I1832
sg47
I1853
sg48
I1995
sg49
I1809
sg50
I1838
sg51
I1829
sg52
I671
sg53
I610
sg54
I493
sg55
I1286
sg56
I1884
sg57
I2175
sg58
I645
sg59
I1835
sg60
I1671
sg61
I1940
sg62
I1886
sg63
I1057
sg64
I2193
sg65
I1610
sg66
I871
sg67
I508
sg68
I1332
sg69
I629
sg70
I722
sg71
I760
sg72
I419
sg73
I751
sg74
I1829
sg75
I556
sg76
I1724
sg77
I283
sg78
I1762
sg79
I1652
sg80
I632
sg81
I1746
sg82
I1045
sg83
I1907
sg84
I582
sg85
I1254
sg86
I556
sg87
I2257
sg88
I1891
sg89
I1222
sg90
I467
sg91
I518
sg92
I1304
sg93
I1501
sg94
I2002
sg95
I1742
sg96
I803
sg97
I1797
sg98
I761
sg99
I724
sg100
I1896
sg101
I2000
sg102
I597
ssg88
(dp187
g2
I691
sg4
I987
sg5
I1357
sg6
I548
sg7
I2084
sg8
I1802
sg9
I1769
sg10
I566
sg11
I1811
sg12
I1618
sg13
I1455
sg14
I1597
sg15
I565
sg16
I781
sg17
I737
sg18
I1860
sg19
I716
sg20
I614
sg21
I1478
sg22
I576
sg23
I1704
sg24
I1751
sg25
I1402
sg26
I1885
sg27
I456
sg28
I1720
sg29
I1777
sg30
I814
sg31
I561
sg32
I760
sg33
I1908
sg34
I1875
sg35
I1884
sg36
I965
sg37
I591
sg38
I676
sg39
I582
sg40
I944
sg41
I249
sg42
I1122
sg43
I507
sg44
I1872
sg45
I717
sg46
I1871
sg47
I1877
sg48
I1910
sg49
I1823
sg50
I1875
sg51
I1840
sg52
I668
sg53
I622
sg54
I499
sg55
I1290
sg56
I1897
sg57
I1899
sg58
I647
sg59
I1844
sg60
I1681
sg61
I1909
sg62
I2024
sg63
I1070
sg64
I1911
sg65
I1626
sg66
I879
sg67
I519
sg68
I1349
sg69
I627
sg70
I728
sg71
I767
sg72
I428
sg73
I730
sg74
I1876
sg75
I565
sg76
I1730
sg77
I287
sg78
I1754
sg79
I1667
sg80
I640
sg81
I1775
sg82
I1042
sg83
I2030
sg84
I589
sg85
I1250
sg86
I564
sg87
I1891
sg88
I2348
sg89
I1219
sg90
I475
sg91
I518
sg92
I1329
sg93
I1488
sg94
I1904
sg95
I1733
sg96
I786
sg97
I1827
sg98
I768
sg99
I727
sg100
I1984
sg101
I1917
sg102
I595
ssg89
(dp188
g2
I655
sg4
I816
sg5
I1074
sg6
I532
sg7
I1213
sg8
I984
sg9
I1133
sg10
I555
sg11
I1212
sg12
I994
sg13
I1165
sg14
I1025
sg15
I552
sg16
I588
sg17
I719
sg18
I1186
sg19
I593
sg20
I569
sg21
I1043
sg22
I567
sg23
I1133
sg24
I1282
sg25
I1046
sg26
I1202
sg27
I459
sg28
I1152
sg29
I1174
sg30
I626
sg31
I546
sg32
I651
sg33
I1232
sg34
I1211
sg35
I1212
sg36
I924
sg37
I539
sg38
I668
sg39
I538
sg40
I878
sg41
I250
sg42
I863
sg43
I498
sg44
I1182
sg45
I705
sg46
I1206
sg47
I1210
sg48
I1222
sg49
I1155
sg50
I1206
sg51
I1199
sg52
I636
sg53
I605
sg54
I489
sg55
I966
sg56
I1214
sg57
I1228
sg58
I641
sg59
I1196
sg60
I1166
sg61
I1228
sg62
I1211
sg63
I906
sg64
I1237
sg65
I999
sg66
I613
sg67
I511
sg68
I1153
sg69
I518
sg70
I700
sg71
I700
sg72
I432
sg73
I589
sg74
I1197
sg75
I571
sg76
I1118
sg77
I265
sg78
I1202
sg79
I1072
sg80
I621
sg81
I1138
sg82
I785
sg83
I1203
sg84
I578
sg85
I781
sg86
I552
sg87
I1222
sg88
I1219
sg89
I1487
sg90
I481
sg91
I530
sg92
I721
sg93
I896
sg94
I1231
sg95
I1177
sg96
I668
sg97
I1205
sg98
I762
sg99
I698
sg100
I1207
sg101
I1236
sg102
I585
ssg90
(dp189
g2
I441
sg4
I476
sg5
I414
sg6
I373
sg7
I472
sg8
I330
sg9
I489
sg10
I415
sg11
I473
sg12
I421
sg13
I450
sg14
I473
sg15
I375
sg16
I358
sg17
I432
sg18
I483
sg19
I512
sg20
I364
sg21
I468
sg22
I380
sg23
I482
sg24
I482
sg25
I472
sg26
I485
sg27
I500
sg28
I447
sg29
I469
sg30
I560
sg31
I376
sg32
I452
sg33
I469
sg34
I490
sg35
I476
sg36
I469
sg37
I401
sg38
I377
sg39
I378
sg40
I429
sg41
I258
sg42
I439
sg43
I362
sg44
I477
sg45
I431
sg46
I484
sg47
I490
sg48
I484
sg49
I476
sg50
I484
sg51
I478
sg52
I425
sg53
I390
sg54
I328
sg55
I463
sg56
I477
sg57
I468
sg58
I426
sg59
I482
sg60
I478
sg61
I485
sg62
I467
sg63
I417
sg64
I472
sg65
I403
sg66
I406
sg67
I367
sg68
I453
sg69
I355
sg70
I439
sg71
I400
sg72
I570
sg73
I359
sg74
I486
sg75
I492
sg76
I447
sg77
I120
sg78
I479
sg79
I490
sg80
I453
sg81
I469
sg82
I467
sg83
I480
sg84
I417
sg85
I300
sg86
I355
sg87
I467
sg88
I475
sg89
I481
sg90
I727
sg91
I421
sg92
I295
sg93
I402
sg94
I485
sg95
I463
sg96
I491
sg97
I487
sg98
I473
sg99
I440
sg100
I475
sg101
I486
sg102
I445
ssg91
(dp190
g2
I437
sg4
I498
sg5
I451
sg6
I416
sg7
I515
sg8
I372
sg9
I526
sg10
I402
sg11
I528
sg12
I439
sg13
I511
sg14
I511
sg15
I417
sg16
I385
sg17
I479
sg18
I501
sg19
I439
sg20
I391
sg21
I509
sg22
I428
sg23
I507
sg24
I532
sg25
I514
sg26
I521
sg27
I403
sg28
I497
sg29
I525
sg30
I470
sg31
I418
sg32
I427
sg33
I527
sg34
I528
sg35
I524
sg36
I501
sg37
I406
sg38
I435
sg39
I354
sg40
I476
sg41
I208
sg42
I476
sg43
I391
sg44
I532
sg45
I465
sg46
I527
sg47
I525
sg48
I517
sg49
I518
sg50
I526
sg51
I523
sg52
I420
sg53
I434
sg54
I369
sg55
I480
sg56
I523
sg57
I524
sg58
I471
sg59
I523
sg60
I510
sg61
I519
sg62
I508
sg63
I452
sg64
I527
sg65
I462
sg66
I378
sg67
I416
sg68
I501
sg69
I387
sg70
I435
sg71
I436
sg72
I369
sg73
I407
sg74
I525
sg75
I401
sg76
I498
sg77
I105
sg78
I530
sg79
I527
sg80
I463
sg81
I509
sg82
I518
sg83
I518
sg84
I422
sg85
I321
sg86
I396
sg87
I518
sg88
I518
sg89
I530
sg90
I421
sg91
I808
sg92
I307
sg93
I440
sg94
I518
sg95
I511
sg96
I478
sg97
I529
sg98
I516
sg99
I436
sg100
I515
sg101
I519
sg102
I448
ssg92
(dp191
g2
I424
sg4
I674
sg5
I931
sg6
I391
sg7
I1317
sg8
I1235
sg9
I1291
sg10
I430
sg11
I1320
sg12
I1455
sg13
I965
sg14
I1349
sg15
I407
sg16
I646
sg17
I446
sg18
I1286
sg19
I514
sg20
I456
sg21
I1068
sg22
I332
sg23
I1205
sg24
I1273
sg25
I1039
sg26
I1364
sg27
I309
sg28
I1262
sg29
I1338
sg30
I608
sg31
I406
sg32
I561
sg33
I1320
sg34
I1357
sg35
I1300
sg36
I611
sg37
I417
sg38
I464
sg39
I349
sg40
I627
sg41
I83
sg42
I803
sg43
I264
sg44
I1323
sg45
I482
sg46
I1354
sg47
I1360
sg48
I1337
sg49
I1305
sg50
I1357
sg51
I1356
sg52
I405
sg53
I385
sg54
I322
sg55
I960
sg56
I1317
sg57
I1310
sg58
I361
sg59
I1354
sg60
I1222
sg61
I1305
sg62
I1305
sg63
I842
sg64
I1318
sg65
I1216
sg66
I738
sg67
I371
sg68
I863
sg69
I495
sg70
I445
sg71
I528
sg72
I267
sg73
I528
sg74
I1360
sg75
I391
sg76
I1261
sg77
I220
sg78
I1282
sg79
I1271
sg80
I357
sg81
I1491
sg82
I776
sg83
I1321
sg84
I430
sg85
I1134
sg86
I350
sg87
I1304
sg88
I1329
sg89
I721
sg90
I295
sg91
I307
sg92
I1671
sg93
I1233
sg94
I1311
sg95
I1269
sg96
I553
sg97
I1311
sg98
I471
sg99
I437
sg100
I1304
sg101
I1325
sg102
I331
ssg93
(dp192
g2
I458
sg4
I732
sg5
I1086
sg6
I530
sg7
I1509
sg8
I1293
sg9
I1415
sg10
I476
sg11
I1706
sg12
I1489
sg13
I1179
sg14
I1326
sg15
I550
sg16
I693
sg17
I613
sg18
I1481
sg19
I551
sg20
I508
sg21
I1152
sg22
I458
sg23
I1361
sg24
I1471
sg25
I1171
sg26
I1513
sg27
I430
sg28
I1611
sg29
I1454
sg30
I644
sg31
I543
sg32
I604
sg33
I1501
sg34
I1519
sg35
I1488
sg36
I685
sg37
I552
sg38
I497
sg39
I456
sg40
I697
sg41
I214
sg42
I843
sg43
I403
sg44
I1491
sg45
I653
sg46
I1503
sg47
I1519
sg48
I1527
sg49
I1473
sg50
I1507
sg51
I1513
sg52
I441
sg53
I513
sg54
I478
sg55
I998
sg56
I1505
sg57
I1487
sg58
I508
sg59
I1514
sg60
I1454
sg61
I1479
sg62
I1484
sg63
I930
sg64
I1504
sg65
I1321
sg66
I748
sg67
I507
sg68
I1080
sg69
I630
sg70
I559
sg71
I594
sg72
I401
sg73
I671
sg74
I1507
sg75
I427
sg76
I1406
sg77
I274
sg78
I1639
sg79
I1348
sg80
I495
sg81
I1476
sg82
I840
sg83
I1501
sg84
I546
sg85
I1207
sg86
I497
sg87
I1501
sg88
I1488
sg89
I896
sg90
I402
sg91
I440
sg92
I1233
sg93
I1976
sg94
I1517
sg95
I1510
sg96
I681
sg97
I1489
sg98
I647
sg99
I559
sg100
I1524
sg101
I1516
sg102
I463
ssg94
(dp193
g2
I695
sg4
I1013
sg5
I1357
sg6
I547
sg7
I1906
sg8
I1681
sg9
I1753
sg10
I577
sg11
I1830
sg12
I1619
sg13
I1421
sg14
I1584
sg15
I565
sg16
I796
sg17
I737
sg18
I1967
sg19
I729
sg20
I617
sg21
I1475
sg22
I581
sg23
I1710
sg24
I1781
sg25
I1405
sg26
I1871
sg27
I461
sg28
I1754
sg29
I1761
sg30
I834
sg31
I560
sg32
I780
sg33
I2000
sg34
I1868
sg35
I1906
sg36
I967
sg37
I596
sg38
I682
sg39
I577
sg40
I941
sg41
I255
sg42
I1122
sg43
I507
sg44
I1867
sg45
I717
sg46
I1857
sg47
I1871
sg48
I2014
sg49
I1828
sg50
I1861
sg51
I1853
sg52
I676
sg53
I627
sg54
I495
sg55
I1290
sg56
I1922
sg57
I1982
sg58
I650
sg59
I1860
sg60
I1696
sg61
I1934
sg62
I1896
sg63
I1054
sg64
I2004
sg65
I1628
sg66
I883
sg67
I520
sg68
I1341
sg69
I619
sg70
I725
sg71
I768
sg72
I435
sg73
I746
sg74
I1854
sg75
I565
sg76
I1741
sg77
I287
sg78
I1788
sg79
I1663
sg80
I633
sg81
I1762
sg82
I1048
sg83
I1929
sg84
I595
sg85
I1281
sg86
I564
sg87
I2002
sg88
I1904
sg89
I1231
sg90
I485
sg91
I518
sg92
I1311
sg93
I1517
sg94
I2213
sg95
I1759
sg96
I807
sg97
I1820
sg98
I765
sg99
I728
sg100
I1910
sg101
I2194
sg102
I600
ssg95
(dp194
g2
I668
sg4
I1025
sg5
I1408
sg6
I538
sg7
I1752
sg8
I1529
sg9
I1749
sg10
I565
sg11
I1856
sg12
I1555
sg13
I1485
sg14
I1515
sg15
I605
sg16
I803
sg17
I707
sg18
I1714
sg19
I758
sg20
I633
sg21
I1377
sg22
I552
sg23
I1594
sg24
I1683
sg25
I1418
sg26
I1847
sg27
I455
sg28
I1721
sg29
I1655
sg30
I794
sg31
I551
sg32
I764
sg33
I1788
sg34
I1843
sg35
I1777
sg36
I928
sg37
I619
sg38
I665
sg39
I548
sg40
I915
sg41
I247
sg42
I1066
sg43
I497
sg44
I1718
sg45
I686
sg46
I1832
sg47
I1844
sg48
I1760
sg49
I1690
sg50
I1834
sg51
I1827
sg52
I649
sg53
I600
sg54
I481
sg55
I1224
sg56
I1787
sg57
I1778
sg58
I631
sg59
I1835
sg60
I1704
sg61
I1724
sg62
I1725
sg63
I1024
sg64
I1790
sg65
I1554
sg66
I836
sg67
I513
sg68
I1384
sg69
I623
sg70
I745
sg71
I758
sg72
I415
sg73
I763
sg74
I1829
sg75
I600
sg76
I1642
sg77
I274
sg78
I1755
sg79
I1652
sg80
I619
sg81
I1681
sg82
I992
sg83
I1746
sg84
I620
sg85
I1286
sg86
I548
sg87
I1742
sg88
I1733
sg89
I1177
sg90
I463
sg91
I511
sg92
I1269
sg93
I1510
sg94
I1759
sg95
I2346
sg96
I781
sg97
I1726
sg98
I741
sg99
I690
sg100
I1749
sg101
I1765
sg102
I581
ssg96
(dp195
g2
I549
sg4
I753
sg5
I653
sg6
I527
sg7
I794
sg8
I626
sg9
I785
sg10
I481
sg11
I792
sg12
I696
sg13
I689
sg14
I750
sg15
I535
sg16
I551
sg17
I549
sg18
I770
sg19
I627
sg20
I491
sg21
I797
sg22
I460
sg23
I781
sg24
I786
sg25
I788
sg26
I800
sg27
I448
sg28
I753
sg29
I774
sg30
I643
sg31
I533
sg32
I659
sg33
I804
sg34
I802
sg35
I803
sg36
I645
sg37
I587
sg38
I524
sg39
I484
sg40
I638
sg41
I249
sg42
I728
sg43
I427
sg44
I784
sg45
I542
sg46
I801
sg47
I805
sg48
I807
sg49
I781
sg50
I801
sg51
I802
sg52
I543
sg53
I538
sg54
I404
sg55
I773
sg56
I802
sg57
I802
sg58
I547
sg59
I804
sg60
I776
sg61
I804
sg62
I792
sg63
I615
sg64
I801
sg65
I679
sg66
I632
sg67
I499
sg68
I702
sg69
I530
sg70
I624
sg71
I568
sg72
I435
sg73
I607
sg74
I805
sg75
I453
sg76
I760
sg77
I195
sg78
I793
sg79
I804
sg80
I597
sg81
I758
sg82
I750
sg83
I807
sg84
I556
sg85
I551
sg86
I489
sg87
I803
sg88
I786
sg89
I668
sg90
I491
sg91
I478
sg92
I553
sg93
I681
sg94
I807
sg95
I781
sg96
I1209
sg97
I803
sg98
I570
sg99
I623
sg100
I796
sg101
I809
sg102
I556
ssg97
(dp196
g2
I685
sg4
I1015
sg5
I1348
sg6
I554
sg7
I1819
sg8
I1578
sg9
I1807
sg10
I562
sg11
I1832
sg12
I1601
sg13
I1422
sg14
I1545
sg15
I575
sg16
I820
sg17
I727
sg18
I1793
sg19
I747
sg20
I620
sg21
I1443
sg22
I579
sg23
I1628
sg24
I1752
sg25
I1395
sg26
I1920
sg27
I466
sg28
I1690
sg29
I1752
sg30
I849
sg31
I569
sg32
I779
sg33
I1819
sg34
I1921
sg35
I1796
sg36
I975
sg37
I591
sg38
I685
sg39
I577
sg40
I944
sg41
I254
sg42
I1133
sg43
I514
sg44
I1784
sg45
I713
sg46
I1899
sg47
I1925
sg48
I1829
sg49
I1770
sg50
I1902
sg51
I1899
sg52
I665
sg53
I629
sg54
I494
sg55
I1282
sg56
I1810
sg57
I1812
sg58
I661
sg59
I1885
sg60
I1667
sg61
I1797
sg62
I1810
sg63
I1052
sg64
I1824
sg65
I1667
sg66
I879
sg67
I524
sg68
I1317
sg69
I613
sg70
I728
sg71
I772
sg72
I431
sg73
I764
sg74
I1905
sg75
I582
sg76
I1727
sg77
I286
sg78
I1738
sg79
I1734
sg80
I636
sg81
I1732
sg82
I1069
sg83
I1826
sg84
I595
sg85
I1254
sg86
I571
sg87
I1797
sg88
I1827
sg89
I1205
sg90
I487
sg91
I529
sg92
I1311
sg93
I1489
sg94
I1820
sg95
I1726
sg96
I803
sg97
I2323
sg98
I762
sg99
I724
sg100
I1805
sg101
I1830
sg102
I595
ssg98
(dp197
g2
I501
sg4
I573
sg5
I657
sg6
I494
sg7
I764
sg8
I562
sg9
I723
sg10
I425
sg11
I755
sg12
I651
sg13
I730
sg14
I723
sg15
I509
sg16
I480
sg17
I769
sg18
I726
sg19
I470
sg20
I434
sg21
I756
sg22
I491
sg23
I753
sg24
I768
sg25
I750
sg26
I749
sg27
I448
sg28
I725
sg29
I739
sg30
I504
sg31
I508
sg32
I533
sg33
I769
sg34
I750
sg35
I754
sg36
I706
sg37
I497
sg38
I498
sg39
I409
sg40
I672
sg41
I238
sg42
I640
sg43
I420
sg44
I764
sg45
I768
sg46
I746
sg47
I749
sg48
I766
sg49
I760
sg50
I747
sg51
I746
sg52
I481
sg53
I531
sg54
I479
sg55
I701
sg56
I755
sg57
I769
sg58
I559
sg59
I747
sg60
I747
sg61
I762
sg62
I759
sg63
I666
sg64
I771
sg65
I654
sg66
I490
sg67
I500
sg68
I721
sg69
I506
sg70
I570
sg71
I542
sg72
I428
sg73
I512
sg74
I749
sg75
I442
sg76
I716
sg77
I236
sg78
I760
sg79
I748
sg80
I533
sg81
I736
sg82
I623
sg83
I767
sg84
I535
sg85
I501
sg86
I489
sg87
I761
sg88
I768
sg89
I762
sg90
I473
sg91
I516
sg92
I471
sg93
I647
sg94
I765
sg95
I741
sg96
I570
sg97
I762
sg98
I934
sg99
I569
sg100
I761
sg101
I765
sg102
I520
ssg99
(dp198
g2
I718
sg4
I613
sg5
I645
sg6
I478
sg7
I718
sg8
I579
sg9
I710
sg10
I425
sg11
I719
sg12
I563
sg13
I689
sg14
I694
sg15
I493
sg16
I439
sg17
I550
sg18
I695
sg19
I465
sg20
I402
sg21
I722
sg22
I477
sg23
I700
sg24
I697
sg25
I697
sg26
I737
sg27
I429
sg28
I696
sg29
I700
sg30
I477
sg31
I485
sg32
I600
sg33
I718
sg34
I733
sg35
I726
sg36
I686
sg37
I461
sg38
I520
sg39
I661
sg40
I645
sg41
I211
sg42
I656
sg43
I409
sg44
I694
sg45
I546
sg46
I732
sg47
I734
sg48
I724
sg49
I688
sg50
I732
sg51
I727
sg52
I632
sg53
I538
sg54
I382
sg55
I711
sg56
I726
sg57
I720
sg58
I545
sg59
I729
sg60
I701
sg61
I714
sg62
I718
sg63
I547
sg64
I721
sg65
I617
sg66
I554
sg67
I449
sg68
I688
sg69
I469
sg70
I1056
sg71
I519
sg72
I390
sg73
I508
sg74
I733
sg75
I435
sg76
I699
sg77
I215
sg78
I694
sg79
I735
sg80
I573
sg81
I686
sg82
I591
sg83
I724
sg84
I504
sg85
I429
sg86
I477
sg87
I724
sg88
I727
sg89
I698
sg90
I440
sg91
I436
sg92
I437
sg93
I559
sg94
I728
sg95
I690
sg96
I623
sg97
I724
sg98
I569
sg99
I1063
sg100
I719
sg101
I726
sg102
I543
ssg100
(dp199
g2
I689
sg4
I996
sg5
I1383
sg6
I546
sg7
I1998
sg8
I1777
sg9
I1751
sg10
I565
sg11
I1833
sg12
I1613
sg13
I1421
sg14
I1562
sg15
I563
sg16
I787
sg17
I736
sg18
I1874
sg19
I723
sg20
I617
sg21
I1478
sg22
I577
sg23
I1699
sg24
I1746
sg25
I1422
sg26
I1852
sg27
I453
sg28
I1743
sg29
I1740
sg30
I821
sg31
I559
sg32
I774
sg33
I1901
sg34
I1853
sg35
I1883
sg36
I961
sg37
I582
sg38
I680
sg39
I575
sg40
I959
sg41
I249
sg42
I1114
sg43
I497
sg44
I1854
sg45
I710
sg46
I1835
sg47
I1851
sg48
I1926
sg49
I1809
sg50
I1837
sg51
I1819
sg52
I659
sg53
I621
sg54
I499
sg55
I1276
sg56
I1897
sg57
I1889
sg58
I646
sg59
I1823
sg60
I1702
sg61
I1885
sg62
I1985
sg63
I1066
sg64
I1900
sg65
I1628
sg66
I866
sg67
I519
sg68
I1352
sg69
I618
sg70
I717
sg71
I759
sg72
I427
sg73
I741
sg74
I1829
sg75
I553
sg76
I1726
sg77
I290
sg78
I1801
sg79
I1663
sg80
I626
sg81
I1742
sg82
I1046
sg83
I1989
sg84
I578
sg85
I1281
sg86
I568
sg87
I1896
sg88
I1984
sg89
I1207
sg90
I475
sg91
I515
sg92
I1304
sg93
I1524
sg94
I1910
sg95
I1749
sg96
I796
sg97
I1805
sg98
I761
sg99
I719
sg100
I2238
sg101
I1909
sg102
I589
ssg101
(dp200
g2
I697
sg4
I1022
sg5
I1362
sg6
I551
sg7
I1918
sg8
I1681
sg9
I1758
sg10
I576
sg11
I1831
sg12
I1640
sg13
I1428
sg14
I1584
sg15
I569
sg16
I798
sg17
I739
sg18
I1965
sg19
I731
sg20
I617
sg21
I1477
sg22
I579
sg23
I1708
sg24
I1787
sg25
I1407
sg26
I1880
sg27
I462
sg28
I1748
sg29
I1765
sg30
I834
sg31
I564
sg32
I780
sg33
I2006
sg34
I1873
sg35
I1914
sg36
I968
sg37
I604
sg38
I684
sg39
I575
sg40
I937
sg41
I255
sg42
I1120
sg43
I511
sg44
I1877
sg45
I719
sg46
I1866
sg47
I1877
sg48
I2013
sg49
I1836
sg50
I1870
sg51
I1866
sg52
I675
sg53
I627
sg54
I496
sg55
I1293
sg56
I1930
sg57
I1992
sg58
I650
sg59
I1865
sg60
I1702
sg61
I1941
sg62
I1906
sg63
I1057
sg64
I2014
sg65
I1627
sg66
I881
sg67
I521
sg68
I1350
sg69
I618
sg70
I730
sg71
I769
sg72
I434
sg73
I749
sg74
I1866
sg75
I574
sg76
I1740
sg77
I287
sg78
I1786
sg79
I1667
sg80
I640
sg81
I1782
sg82
I1043
sg83
I1931
sg84
I602
sg85
I1289
sg86
I564
sg87
I2000
sg88
I1917
sg89
I1236
sg90
I486
sg91
I519
sg92
I1325
sg93
I1516
sg94
I2194
sg95
I1765
sg96
I809
sg97
I1830
sg98
I765
sg99
I726
sg100
I1909
sg101
I2230
sg102
I599
ssg102
(dp201
g2
I530
sg4
I580
sg5
I538
sg6
I426
sg7
I588
sg8
I437
sg9
I608
sg10
I416
sg11
I586
sg12
I478
sg13
I589
sg14
I583
sg15
I428
sg16
I385
sg17
I473
sg18
I569
sg19
I438
sg20
I410
sg21
I590
sg22
I459
sg23
I588
sg24
I597
sg25
I590
sg26
I606
sg27
I430
sg28
I561
sg29
I583
sg30
I492
sg31
I426
sg32
I473
sg33
I592
sg34
I603
sg35
I597
sg36
I578
sg37
I645
sg38
I483
sg39
I452
sg40
I519
sg41
I231
sg42
I544
sg43
I427
sg44
I582
sg45
I478
sg46
I606
sg47
I603
sg48
I593
sg49
I581
sg50
I605
sg51
I594
sg52
I524
sg53
I493
sg54
I348
sg55
I566
sg56
I596
sg57
I594
sg58
I538
sg59
I599
sg60
I582
sg61
I606
sg62
I597
sg63
I472
sg64
I599
sg65
I534
sg66
I414
sg67
I422
sg68
I589
sg69
I417
sg70
I541
sg71
I493
sg72
I395
sg73
I444
sg74
I611
sg75
I410
sg76
I568
sg77
I116
sg78
I578
sg79
I603
sg80
I845
sg81
I577
sg82
I552
sg83
I592
sg84
I603
sg85
I345
sg86
I433
sg87
I597
sg88
I595
sg89
I585
sg90
I445
sg91
I448
sg92
I331
sg93
I463
sg94
I600
sg95
I581
sg96
I556
sg97
I595
sg98
I520
sg99
I543
sg100
I589
sg101
I599
sg102
I913
ss.