(dp1
S'amaVit1'
p2
(dp3
g2
I0
sS'latCha1'
p4
I446
sS'criGri1'
p5
I1095
sS'punNye1'
p6
I459
sS'odoRosDiv1'
p7
I1158
sS'lepWed1'
p8
I1155
sS'papAnu2'
p9
I1186
sS'anoCar2'
p10
I755
sS'chiLan1'
p11
I1222
sS'loxAfr3'
p12
I1178
sS'rn6'
p13
I1184
sS'eleEdw1'
p14
I1202
sS'oreNil2'
p15
I688
sS'astMex1'
p16
I554
sS'eptFus1'
p17
I1154
sS'vicPac2'
p18
I1185
sS'geoFor1'
p19
I404
sS'oryLat2'
p20
I527
sS'sorAra2'
p21
I1176
sS'gadMor1'
p22
I574
sS'eriEur2'
p23
I1320
sS'oryCun2'
p24
I1147
sS'micOch1'
p25
I1203
sS'chlSab2'
p26
I1177
sS'araMac1'
p27
I432
sS'octDeg1'
p28
I1271
sS'dasNov3'
p29
I1157
sS'taeGut2'
p30
I526
sS'mayZeb1'
p31
I482
sS'macEug2'
p32
I1032
sS'ficAlb2'
p33
I427
sS'panHod1'
p34
I1143
sS'gorGor3'
p35
I1179
sS'pteVam1'
p36
I1095
sS'galGal4'
p37
I517
sS'pelSin1'
p38
I615
sS'xipMac1'
p39
I507
sS'anaPla1'
p40
I498
sS'ornAna1'
p41
I1532
sS'sarHar1'
p42
I1208
sS'takFla1'
p43
I492
sS'equCab2'
p44
I1159
sS'myoLuc2'
p45
I1136
sS'rheMac3'
p46
I1160
sS'gasAcu1'
p47
I664
sS'camFer1'
p48
I1176
sS'cerSim1'
p49
I1146
sS'ailMel1'
p50
I1160
sS'macFas5'
p51
I1154
sS'calJac3'
p52
I1181
sS'melUnd1'
p53
I167
sS'neoBri1'
p54
I464
sS'conCri1'
p55
I1208
sS'monDom5'
p56
I1135
sS'pteAle1'
p57
I1161
sS'oviAri3'
p58
I1206
sS'danRer10'
p59
I423
sS'saiBol1'
p60
I1168
sS'jacJac1'
p61
I1255
sS'susScr3'
p62
I1159
sS'canFam3'
p63
I1153
sS'echTel2'
p64
I1216
sS'capHir1'
p65
I1135
sS'ponAbe2'
p66
I1183
sS'pseHum1'
p67
I412
sS'hapBur1'
p68
I504
sS'mm10'
p69
I1155
sS'xenTro7'
p70
I428
sS'falPer1'
p71
I578
sS'fr3'
p72
I552
sS'colLiv1'
p73
I590
sS'hg38'
p74
I1179
sS'nomLeu3'
p75
I1011
sS'zonAlb1'
p76
I589
sS'tupChi1'
p77
I1020
sS'chrAsi1'
p78
I1239
sS'cavPor3'
p79
I1227
sS'panTro4'
p80
I1188
sS'cheMyd1'
p81
I931
sS'triMan1'
p82
I1177
sS'lepOcu1'
p83
I504
sS'apaSpi1'
p84
I586
sS'mesAur1'
p85
I1165
sS'tetNig2'
p86
I618
sS'bosTau8'
p87
I1138
sS'musFur1'
p88
I1153
sS'ochPri3'
p89
I1178
sS'melGal1'
p90
I545
sS'petMar2'
p91
I651
sS'oryAfe1'
p92
I1166
sS'hetGla2'
p93
I1243
sS'turTru2'
p94
I1104
sS'speTri2'
p95
I1195
sS'allMis1'
p96
I537
sS'otoGar3'
p97
I1173
sS'myoDav1'
p98
I1029
sS'falChe1'
p99
I492
sS'felCat8'
p100
I1166
sS'orcOrc1'
p101
I1109
sS'chrPic2'
p102
I976
ssg4
(dp103
g2
I446
sg4
I0
sg5
I663
sg6
I508
sg7
I713
sg8
I706
sg9
I696
sg10
I800
sg11
I749
sg12
I715
sg13
I716
sg14
I742
sg15
I541
sg16
I581
sg17
I688
sg18
I714
sg19
I556
sg20
I583
sg21
I711
sg22
I680
sg23
I887
sg24
I723
sg25
I733
sg26
I705
sg27
I567
sg28
I803
sg29
I705
sg30
I637
sg31
I529
sg32
I486
sg33
I738
sg34
I685
sg35
I691
sg36
I498
sg37
I650
sg38
I767
sg39
I560
sg40
I613
sg41
I811
sg42
I762
sg43
I534
sg44
I725
sg45
I691
sg46
I644
sg47
I578
sg48
I676
sg49
I705
sg50
I698
sg51
I673
sg52
I696
sg53
I550
sg54
I515
sg55
I722
sg56
I623
sg57
I709
sg58
I708
sg59
I531
sg60
I688
sg61
I733
sg62
I735
sg63
I740
sg64
I700
sg65
I639
sg66
I694
sg67
I715
sg68
I528
sg69
I726
sg70
I527
sg71
I384
sg72
I700
sg73
I473
sg74
I696
sg75
I691
sg76
I812
sg77
I580
sg78
I685
sg79
I745
sg80
I706
sg81
I646
sg82
I719
sg83
I606
sg84
I455
sg85
I721
sg86
I594
sg87
I724
sg88
I715
sg89
I755
sg90
I657
sg91
I601
sg92
I651
sg93
I727
sg94
I719
sg95
I728
sg96
I820
sg97
I725
sg98
I558
sg99
I464
sg100
I779
sg101
I691
sg102
I709
ssg5
(dp104
g2
I1095
sg4
I663
sg5
I0
sg6
I514
sg7
I2598
sg8
I2601
sg9
I2905
sg10
I1753
sg11
I2448
sg12
I2820
sg13
I1441
sg14
I3566
sg15
I741
sg16
I819
sg17
I3062
sg18
I2639
sg19
I1407
sg20
I717
sg21
I3135
sg22
I785
sg23
I3311
sg24
I2569
sg25
I1094
sg26
I2465
sg27
I746
sg28
I2661
sg29
I2906
sg30
I1451
sg31
I543
sg32
I1699
sg33
I2013
sg34
I2713
sg35
I2410
sg36
I2208
sg37
I1858
sg38
I2420
sg39
I660
sg40
I806
sg41
I2056
sg42
I3672
sg43
I703
sg44
I2530
sg45
I2810
sg46
I2447
sg47
I872
sg48
I2642
sg49
I2459
sg50
I2532
sg51
I2504
sg52
I2497
sg53
I920
sg54
I521
sg55
I2805
sg56
I3794
sg57
I2618
sg58
I2646
sg59
I513
sg60
I2480
sg61
I2647
sg62
I2666
sg63
I3118
sg64
I3476
sg65
I2645
sg66
I2452
sg67
I1751
sg68
I571
sg69
I1415
sg70
I464
sg71
I1787
sg72
I947
sg73
I2124
sg74
I2408
sg75
I2348
sg76
I1195
sg77
I2941
sg78
I3055
sg79
I2625
sg80
I2413
sg81
I3174
sg82
I2799
sg83
I626
sg84
I1320
sg85
I785
sg86
I801
sg87
I2689
sg88
I2648
sg89
I2887
sg90
I1584
sg91
I758
sg92
I2904
sg93
I2443
sg94
I2607
sg95
I2318
sg96
I3310
sg97
I2703
sg98
I2784
sg99
I1615
sg100
I2635
sg101
I2570
sg102
I3445
ssg6
(dp105
g2
I459
sg4
I508
sg5
I514
sg6
I0
sg7
I704
sg8
I684
sg9
I688
sg10
I875
sg11
I765
sg12
I658
sg13
I703
sg14
I684
sg15
I97
sg16
I418
sg17
I556
sg18
I603
sg19
I439
sg20
I468
sg21
I687
sg22
I594
sg23
I765
sg24
I704
sg25
I748
sg26
I703
sg27
I632
sg28
I781
sg29
I696
sg30
I674
sg31
I30
sg32
I690
sg33
I739
sg34
I560
sg35
I701
sg36
I640
sg37
I530
sg38
I707
sg39
I297
sg40
I484
sg41
I868
sg42
I779
sg43
I329
sg44
I730
sg45
I697
sg46
I537
sg47
I455
sg48
I554
sg49
I704
sg50
I596
sg51
I686
sg52
I705
sg53
I620
sg54
I46
sg55
I729
sg56
I767
sg57
I665
sg58
I732
sg59
I383
sg60
I693
sg61
I758
sg62
I690
sg63
I743
sg64
I625
sg65
I514
sg66
I694
sg67
I760
sg68
I34
sg69
I717
sg70
I534
sg71
I496
sg72
I309
sg73
I712
sg74
I697
sg75
I696
sg76
I868
sg77
I532
sg78
I697
sg79
I764
sg80
I710
sg81
I561
sg82
I711
sg83
I475
sg84
I527
sg85
I585
sg86
I350
sg87
I710
sg88
I704
sg89
I596
sg90
I466
sg91
I613
sg92
I592
sg93
I757
sg94
I706
sg95
I712
sg96
I772
sg97
I727
sg98
I410
sg99
I515
sg100
I759
sg101
I682
sg102
I805
ssg7
(dp106
g2
I1158
sg4
I713
sg5
I2598
sg6
I704
sg7
I0
sg8
I416
sg9
I2517
sg10
I1963
sg11
I2429
sg12
I2157
sg13
I2951
sg14
I3214
sg15
I955
sg16
I924
sg17
I2187
sg18
I1477
sg19
I1625
sg20
I802
sg21
I2451
sg22
I947
sg23
I2783
sg24
I2389
sg25
I2927
sg26
I1969
sg27
I838
sg28
I2621
sg29
I2354
sg30
I1830
sg31
I738
sg32
I1950
sg33
I2446
sg34
I1691
sg35
I1932
sg36
I1469
sg37
I2082
sg38
I2640
sg39
I1101
sg40
I870
sg41
I1973
sg42
I3777
sg43
I786
sg44
I1406
sg45
I1872
sg46
I1896
sg47
I957
sg48
I1537
sg49
I1271
sg50
I629
sg51
I2098
sg52
I2086
sg53
I1242
sg54
I723
sg55
I1958
sg56
I3899
sg57
I1656
sg58
I1850
sg59
I575
sg60
I2066
sg61
I3348
sg62
I1597
sg63
I1901
sg64
I2970
sg65
I1654
sg66
I1939
sg67
I2262
sg68
I768
sg69
I2875
sg70
I750
sg71
I1920
sg72
I1053
sg73
I2585
sg74
I1956
sg75
I1873
sg76
I1741
sg77
I2623
sg78
I2515
sg79
I2578
sg80
I1934
sg81
I3187
sg82
I2090
sg83
I733
sg84
I1341
sg85
I2628
sg86
I1080
sg87
I1675
sg88
I884
sg89
I2604
sg90
I1618
sg91
I786
sg92
I2398
sg93
I2365
sg94
I1400
sg95
I2311
sg96
I3672
sg97
I2366
sg98
I1841
sg99
I1739
sg100
I1063
sg101
I1425
sg102
I3864
ssg8
(dp107
g2
I1155
sg4
I706
sg5
I2601
sg6
I684
sg7
I416
sg8
I0
sg9
I2501
sg10
I1963
sg11
I2485
sg12
I2203
sg13
I2969
sg14
I3160
sg15
I931
sg16
I913
sg17
I2150
sg18
I1537
sg19
I1678
sg20
I802
sg21
I2423
sg22
I949
sg23
I2823
sg24
I2452
sg25
I2955
sg26
I2037
sg27
I871
sg28
I2597
sg29
I2315
sg30
I1878
sg31
I717
sg32
I2004
sg33
I2421
sg34
I1698
sg35
I1994
sg36
I1470
sg37
I2082
sg38
I2643
sg39
I1089
sg40
I905
sg41
I2033
sg42
I3752
sg43
I773
sg44
I1478
sg45
I1923
sg46
I1964
sg47
I1009
sg48
I1534
sg49
I1338
sg50
I707
sg51
I2075
sg52
I2149
sg53
I1244
sg54
I703
sg55
I2027
sg56
I3894
sg57
I1648
sg58
I1865
sg59
I565
sg60
I2128
sg61
I3419
sg62
I1666
sg63
I1924
sg64
I2971
sg65
I1686
sg66
I2003
sg67
I2254
sg68
I746
sg69
I2959
sg70
I739
sg71
I1909
sg72
I1036
sg73
I2571
sg74
I2017
sg75
I1952
sg76
I1721
sg77
I2610
sg78
I2468
sg79
I2629
sg80
I1996
sg81
I3226
sg82
I2134
sg83
I770
sg84
I1359
sg85
I2643
sg86
I1066
sg87
I1681
sg88
I947
sg89
I2650
sg90
I1654
sg91
I824
sg92
I2362
sg93
I2420
sg94
I1467
sg95
I2399
sg96
I3730
sg97
I2427
sg98
I1834
sg99
I1722
sg100
I1125
sg101
I1392
sg102
I3850
ssg9
(dp108
g2
I1186
sg4
I696
sg5
I2905
sg6
I688
sg7
I2517
sg8
I2501
sg9
I0
sg10
I1928
sg11
I2795
sg12
I2843
sg13
I3225
sg14
I3420
sg15
I973
sg16
I912
sg17
I2905
sg18
I2534
sg19
I1688
sg20
I801
sg21
I3181
sg22
I932
sg23
I3539
sg24
I2741
sg25
I3192
sg26
I831
sg27
I896
sg28
I3021
sg29
I2910
sg30
I1920
sg31
I721
sg32
I2117
sg33
I2401
sg34
I2647
sg35
I1046
sg36
I2252
sg37
I2134
sg38
I2692
sg39
I1103
sg40
I896
sg41
I2182
sg42
I3759
sg43
I785
sg44
I2510
sg45
I2811
sg46
I792
sg47
I1006
sg48
I2469
sg49
I2392
sg50
I2371
sg51
I756
sg52
I1456
sg53
I1260
sg54
I709
sg55
I2873
sg56
I4071
sg57
I2555
sg58
I2793
sg59
I566
sg60
I1458
sg61
I3667
sg62
I2662
sg63
I3135
sg64
I3467
sg65
I2598
sg66
I1094
sg67
I2222
sg68
I752
sg69
I3148
sg70
I722
sg71
I1936
sg72
I1057
sg73
I2608
sg74
I1079
sg75
I1121
sg76
I1754
sg77
I2461
sg78
I3024
sg79
I2888
sg80
I1074
sg81
I3357
sg82
I2744
sg83
I780
sg84
I1386
sg85
I2931
sg86
I1051
sg87
I2645
sg88
I2541
sg89
I2952
sg90
I1715
sg91
I824
sg92
I2868
sg93
I2773
sg94
I2515
sg95
I2715
sg96
I3773
sg97
I2385
sg98
I2636
sg99
I1735
sg100
I2564
sg101
I2413
sg102
I3939
ssg10
(dp109
g2
I755
sg4
I800
sg5
I1753
sg6
I875
sg7
I1963
sg8
I1963
sg9
I1928
sg10
I0
sg11
I1972
sg12
I1939
sg13
I2005
sg14
I2007
sg15
I965
sg16
I1031
sg17
I1853
sg18
I1873
sg19
I674
sg20
I808
sg21
I1923
sg22
I1029
sg23
I2048
sg24
I1897
sg25
I1987
sg26
I1937
sg27
I764
sg28
I2021
sg29
I1941
sg30
I706
sg31
I900
sg32
I1558
sg33
I1317
sg34
I1836
sg35
I1934
sg36
I1834
sg37
I599
sg38
I1209
sg39
I836
sg40
I597
sg41
I1476
sg42
I2108
sg43
I978
sg44
I1957
sg45
I1913
sg46
I1777
sg47
I891
sg48
I1863
sg49
I1948
sg50
I1873
sg51
I1897
sg52
I1948
sg53
I754
sg54
I884
sg55
I1969
sg56
I2149
sg57
I1917
sg58
I1903
sg59
I712
sg60
I1903
sg61
I2124
sg62
I1966
sg63
I1954
sg64
I1941
sg65
I1600
sg66
I1934
sg67
I1027
sg68
I931
sg69
I2011
sg70
I694
sg71
I794
sg72
I1142
sg73
I1020
sg74
I1934
sg75
I1588
sg76
I942
sg77
I1712
sg78
I2039
sg79
I2016
sg80
I1941
sg81
I1179
sg82
I2000
sg83
I767
sg84
I661
sg85
I1903
sg86
I1063
sg87
I1943
sg88
I1969
sg89
I1901
sg90
I652
sg91
I859
sg92
I1880
sg93
I1978
sg94
I1961
sg95
I1958
sg96
I1365
sg97
I1948
sg98
I1578
sg99
I718
sg100
I1985
sg101
I1927
sg102
I1540
ssg11
(dp110
g2
I1222
sg4
I749
sg5
I2448
sg6
I765
sg7
I2429
sg8
I2485
sg9
I2795
sg10
I1972
sg11
I0
sg12
I2632
sg13
I2855
sg14
I3575
sg15
I1001
sg16
I948
sg17
I2775
sg18
I2363
sg19
I1679
sg20
I828
sg21
I3026
sg22
I956
sg23
I3300
sg24
I2450
sg25
I2748
sg26
I2249
sg27
I869
sg28
I1217
sg29
I2871
sg30
I1917
sg31
I801
sg32
I2100
sg33
I2572
sg34
I2506
sg35
I2184
sg36
I2110
sg37
I2096
sg38
I2688
sg39
I1132
sg40
I893
sg41
I2118
sg42
I3960
sg43
I824
sg44
I2382
sg45
I2695
sg46
I2094
sg47
I1018
sg48
I2363
sg49
I2263
sg50
I2170
sg51
I2276
sg52
I2369
sg53
I1339
sg54
I782
sg55
I2661
sg56
I4055
sg57
I2529
sg58
I2686
sg59
I598
sg60
I2287
sg61
I3209
sg62
I2480
sg63
I2926
sg64
I3400
sg65
I2448
sg66
I2225
sg67
I2360
sg68
I832
sg69
I2749
sg70
I757
sg71
I1959
sg72
I1115
sg73
I2653
sg74
I2215
sg75
I2143
sg76
I1786
sg77
I2778
sg78
I3006
sg79
I1208
sg80
I2189
sg81
I3242
sg82
I2666
sg83
I752
sg84
I1346
sg85
I2492
sg86
I1136
sg87
I2597
sg88
I2463
sg89
I2637
sg90
I1650
sg91
I831
sg92
I2833
sg93
I1290
sg94
I2342
sg95
I2290
sg96
I3723
sg97
I2529
sg98
I2496
sg99
I1826
sg100
I2511
sg101
I2421
sg102
I3939
ssg12
(dp111
g2
I1178
sg4
I715
sg5
I2820
sg6
I658
sg7
I2157
sg8
I2203
sg9
I2843
sg10
I1939
sg11
I2632
sg12
I0
sg13
I3147
sg14
I2622
sg15
I918
sg16
I925
sg17
I2617
sg18
I2091
sg19
I1690
sg20
I816
sg21
I2881
sg22
I965
sg23
I3163
sg24
I2720
sg25
I3148
sg26
I2286
sg27
I850
sg28
I2864
sg29
I2125
sg30
I1815
sg31
I682
sg32
I2004
sg33
I2467
sg34
I2298
sg35
I2278
sg36
I1900
sg37
I2078
sg38
I2570
sg39
I1087
sg40
I878
sg41
I2021
sg42
I3791
sg43
I798
sg44
I2008
sg45
I2437
sg46
I2170
sg47
I986
sg48
I2153
sg49
I1993
sg50
I1947
sg51
I2365
sg52
I2388
sg53
I1230
sg54
I669
sg55
I2487
sg56
I4027
sg57
I2270
sg58
I2449
sg59
I581
sg60
I2323
sg61
I3559
sg62
I2281
sg63
I2717
sg64
I2459
sg65
I2249
sg66
I2289
sg67
I2165
sg68
I711
sg69
I3105
sg70
I758
sg71
I1880
sg72
I1080
sg73
I2569
sg74
I2294
sg75
I2224
sg76
I1713
sg77
I2843
sg78
I1913
sg79
I2811
sg80
I2280
sg81
I3236
sg82
I1166
sg83
I732
sg84
I1411
sg85
I2821
sg86
I1006
sg87
I2351
sg88
I2228
sg89
I2858
sg90
I1674
sg91
I831
sg92
I1645
sg93
I2630
sg94
I2128
sg95
I2532
sg96
I3752
sg97
I2630
sg98
I2310
sg99
I1705
sg100
I2269
sg101
I2154
sg102
I3833
ssg13
(dp112
g2
I1184
sg4
I716
sg5
I1441
sg6
I703
sg7
I2951
sg8
I2969
sg9
I3225
sg10
I2005
sg11
I2855
sg12
I3147
sg13
I0
sg14
I3825
sg15
I950
sg16
I964
sg17
I3242
sg18
I2929
sg19
I1752
sg20
I814
sg21
I3510
sg22
I931
sg23
I3768
sg24
I2989
sg25
I1742
sg26
I2833
sg27
I890
sg28
I3121
sg29
I3267
sg30
I1898
sg31
I739
sg32
I2138
sg33
I2541
sg34
I3012
sg35
I2809
sg36
I2640
sg37
I2129
sg38
I2761
sg39
I1131
sg40
I825
sg41
I2201
sg42
I4093
sg43
I844
sg44
I2966
sg45
I3193
sg46
I2727
sg47
I1023
sg48
I2866
sg49
I2849
sg50
I2767
sg51
I2903
sg52
I2910
sg53
I1281
sg54
I720
sg55
I3240
sg56
I4349
sg57
I3014
sg58
I3145
sg59
I563
sg60
I2879
sg61
I2995
sg62
I3054
sg63
I3361
sg64
I3748
sg65
I2980
sg66
I2833
sg67
I2310
sg68
I768
sg69
I1180
sg70
I755
sg71
I1968
sg72
I1106
sg73
I2607
sg74
I2827
sg75
I2685
sg76
I1775
sg77
I3195
sg78
I3388
sg79
I3060
sg80
I2798
sg81
I3308
sg82
I3165
sg83
I781
sg84
I1412
sg85
I1613
sg86
I1041
sg87
I3076
sg88
I2985
sg89
I3122
sg90
I1678
sg91
I837
sg92
I3275
sg93
I2882
sg94
I2984
sg95
I2705
sg96
I3824
sg97
I3166
sg98
I2903
sg99
I1702
sg100
I3064
sg101
I2919
sg102
I3989
ssg14
(dp113
g2
I1202
sg4
I742
sg5
I3566
sg6
I684
sg7
I3214
sg8
I3160
sg9
I3420
sg10
I2007
sg11
I3575
sg12
I2622
sg13
I3825
sg14
I0
sg15
I1007
sg16
I906
sg17
I3461
sg18
I3178
sg19
I1463
sg20
I847
sg21
I3671
sg22
I930
sg23
I3926
sg24
I3564
sg25
I3901
sg26
I3274
sg27
I887
sg28
I3754
sg29
I3141
sg30
I1833
sg31
I709
sg32
I2264
sg33
I2430
sg34
I3208
sg35
I3243
sg36
I2836
sg37
I1848
sg38
I2710
sg39
I1005
sg40
I909
sg41
I2325
sg42
I3985
sg43
I771
sg44
I3136
sg45
I3368
sg46
I3171
sg47
I1074
sg48
I3112
sg49
I3078
sg50
I3023
sg51
I3319
sg52
I3327
sg53
I1174
sg54
I698
sg55
I3475
sg56
I4283
sg57
I3256
sg58
I3384
sg59
I557
sg60
I3318
sg61
I4133
sg62
I3262
sg63
I3538
sg64
I3298
sg65
I3143
sg66
I3266
sg67
I2114
sg68
I744
sg69
I3826
sg70
I635
sg71
I1988
sg72
I1076
sg73
I2516
sg74
I3248
sg75
I3066
sg76
I1626
sg77
I3449
sg78
I2957
sg79
I3755
sg80
I3247
sg81
I3406
sg82
I2628
sg83
I810
sg84
I1323
sg85
I3563
sg86
I1022
sg87
I3279
sg88
I3259
sg89
I3692
sg90
I1536
sg91
I876
sg92
I2803
sg93
I3577
sg94
I3219
sg95
I3523
sg96
I3572
sg97
I3519
sg98
I3171
sg99
I1762
sg100
I3279
sg101
I3140
sg102
I3866
ssg15
(dp114
g2
I688
sg4
I541
sg5
I741
sg6
I97
sg7
I955
sg8
I931
sg9
I973
sg10
I965
sg11
I1001
sg12
I918
sg13
I950
sg14
I1007
sg15
I0
sg16
I442
sg17
I817
sg18
I854
sg19
I453
sg20
I493
sg21
I946
sg22
I602
sg23
I996
sg24
I934
sg25
I995
sg26
I948
sg27
I679
sg28
I1019
sg29
I971
sg30
I699
sg31
I77
sg32
I1074
sg33
I868
sg34
I798
sg35
I940
sg36
I911
sg37
I727
sg38
I905
sg39
I307
sg40
I506
sg41
I1072
sg42
I1144
sg43
I367
sg44
I971
sg45
I947
sg46
I769
sg47
I470
sg48
I799
sg49
I947
sg50
I829
sg51
I930
sg52
I955
sg53
I629
sg54
I70
sg55
I1003
sg56
I1126
sg57
I930
sg58
I963
sg59
I419
sg60
I938
sg61
I1005
sg62
I956
sg63
I979
sg64
I913
sg65
I739
sg66
I940
sg67
I797
sg68
I79
sg69
I968
sg70
I548
sg71
I743
sg72
I354
sg73
I946
sg74
I937
sg75
I955
sg76
I884
sg77
I780
sg78
I960
sg79
I1016
sg80
I950
sg81
I929
sg82
I966
sg83
I474
sg84
I707
sg85
I843
sg86
I419
sg87
I957
sg88
I955
sg89
I858
sg90
I484
sg91
I636
sg92
I841
sg93
I1010
sg94
I933
sg95
I953
sg96
I835
sg97
I979
sg98
I659
sg99
I732
sg100
I1020
sg101
I927
sg102
I1168
ssg16
(dp115
g2
I554
sg4
I581
sg5
I819
sg6
I418
sg7
I924
sg8
I913
sg9
I912
sg10
I1031
sg11
I948
sg12
I925
sg13
I964
sg14
I906
sg15
I442
sg16
I0
sg17
I901
sg18
I892
sg19
I663
sg20
I447
sg21
I862
sg22
I490
sg23
I1013
sg24
I894
sg25
I932
sg26
I917
sg27
I676
sg28
I964
sg29
I894
sg30
I592
sg31
I436
sg32
I654
sg33
I794
sg34
I855
sg35
I905
sg36
I780
sg37
I498
sg38
I874
sg39
I399
sg40
I510
sg41
I1043
sg42
I946
sg43
I414
sg44
I913
sg45
I914
sg46
I799
sg47
I500
sg48
I852
sg49
I907
sg50
I905
sg51
I882
sg52
I918
sg53
I614
sg54
I418
sg55
I943
sg56
I889
sg57
I894
sg58
I938
sg59
I263
sg60
I902
sg61
I973
sg62
I919
sg63
I923
sg64
I902
sg65
I805
sg66
I911
sg67
I776
sg68
I433
sg69
I939
sg70
I548
sg71
I465
sg72
I490
sg73
I640
sg74
I906
sg75
I781
sg76
I968
sg77
I688
sg78
I907
sg79
I948
sg80
I915
sg81
I739
sg82
I910
sg83
I462
sg84
I434
sg85
I904
sg86
I482
sg87
I925
sg88
I930
sg89
I905
sg90
I565
sg91
I613
sg92
I804
sg93
I934
sg94
I935
sg95
I925
sg96
I833
sg97
I934
sg98
I622
sg99
I541
sg100
I982
sg101
I910
sg102
I880
ssg17
(dp116
g2
I1154
sg4
I688
sg5
I3062
sg6
I556
sg7
I2187
sg8
I2150
sg9
I2905
sg10
I1853
sg11
I2775
sg12
I2617
sg13
I3242
sg14
I3461
sg15
I817
sg16
I901
sg17
I0
sg18
I2176
sg19
I1468
sg20
I794
sg21
I2867
sg22
I931
sg23
I3232
sg24
I2749
sg25
I3174
sg26
I2552
sg27
I874
sg28
I3017
sg29
I2712
sg30
I1502
sg31
I575
sg32
I1815
sg33
I2111
sg34
I2335
sg35
I2481
sg36
I1572
sg37
I1915
sg38
I2521
sg39
I673
sg40
I898
sg41
I2182
sg42
I3747
sg43
I796
sg44
I2053
sg45
I1214
sg46
I2530
sg47
I968
sg48
I2190
sg49
I2023
sg50
I2092
sg51
I2580
sg52
I2651
sg53
I943
sg54
I557
sg55
I2506
sg56
I3773
sg57
I1901
sg58
I2424
sg59
I562
sg60
I2604
sg61
I3484
sg62
I2278
sg63
I2599
sg64
I3332
sg65
I2279
sg66
I2490
sg67
I1801
sg68
I608
sg69
I3191
sg70
I536
sg71
I1833
sg72
I1004
sg73
I2151
sg74
I2485
sg75
I2396
sg76
I1284
sg77
I2980
sg78
I2900
sg79
I2973
sg80
I2496
sg81
I3257
sg82
I2590
sg83
I730
sg84
I1360
sg85
I3072
sg86
I845
sg87
I2291
sg88
I2209
sg89
I3096
sg90
I1659
sg91
I844
sg92
I2736
sg93
I2792
sg94
I2180
sg95
I2827
sg96
I3362
sg97
I2875
sg98
I1319
sg99
I1627
sg100
I2244
sg101
I2160
sg102
I3586
ssg18
(dp117
g2
I1185
sg4
I714
sg5
I2639
sg6
I603
sg7
I1477
sg8
I1537
sg9
I2534
sg10
I1873
sg11
I2363
sg12
I2091
sg13
I2929
sg14
I3178
sg15
I854
sg16
I892
sg17
I2176
sg18
I0
sg19
I1670
sg20
I807
sg21
I2501
sg22
I937
sg23
I2778
sg24
I2431
sg25
I2896
sg26
I2017
sg27
I834
sg28
I2560
sg29
I2318
sg30
I1803
sg31
I630
sg32
I1877
sg33
I2389
sg34
I1536
sg35
I1973
sg36
I1337
sg37
I2083
sg38
I2493
sg39
I1031
sg40
I899
sg41
I1977
sg42
I3645
sg43
I787
sg44
I1412
sg45
I1846
sg46
I1964
sg47
I1000
sg48
I313
sg49
I1341
sg50
I1362
sg51
I2101
sg52
I2118
sg53
I1137
sg54
I614
sg55
I1957
sg56
I3757
sg57
I1669
sg58
I1684
sg59
I571
sg60
I2090
sg61
I3299
sg62
I1446
sg63
I2244
sg64
I3006
sg65
I1489
sg66
I1988
sg67
I2191
sg68
I660
sg69
I2857
sg70
I731
sg71
I1813
sg72
I1068
sg73
I2417
sg74
I1997
sg75
I1932
sg76
I1668
sg77
I2668
sg78
I2485
sg79
I2516
sg80
I1973
sg81
I3212
sg82
I2064
sg83
I728
sg84
I1359
sg85
I2655
sg86
I979
sg87
I1485
sg88
I1580
sg89
I2661
sg90
I1640
sg91
I793
sg92
I2367
sg93
I2308
sg94
I1215
sg95
I2335
sg96
I3573
sg97
I2385
sg98
I1833
sg99
I1637
sg100
I1601
sg101
I1257
sg102
I3765
ssg19
(dp118
g2
I404
sg4
I556
sg5
I1407
sg6
I439
sg7
I1625
sg8
I1678
sg9
I1688
sg10
I674
sg11
I1679
sg12
I1690
sg13
I1752
sg14
I1463
sg15
I453
sg16
I663
sg17
I1468
sg18
I1670
sg19
I0
sg20
I465
sg21
I1714
sg22
I417
sg23
I1881
sg24
I1624
sg25
I1723
sg26
I1624
sg27
I454
sg28
I1767
sg29
I1693
sg30
I656
sg31
I461
sg32
I647
sg33
I658
sg34
I1671
sg35
I1611
sg36
I1211
sg37
I849
sg38
I782
sg39
I705
sg40
I543
sg41
I1225
sg42
I1334
sg43
I465
sg44
I1648
sg45
I1600
sg46
I1551
sg47
I635
sg48
I1628
sg49
I1633
sg50
I1576
sg51
I1642
sg52
I1614
sg53
I534
sg54
I443
sg55
I1701
sg56
I1881
sg57
I1674
sg58
I1751
sg59
I459
sg60
I1612
sg61
I1800
sg62
I1620
sg63
I1528
sg64
I1792
sg65
I1626
sg66
I1615
sg67
I737
sg68
I455
sg69
I1690
sg70
I679
sg71
I583
sg72
I666
sg73
I643
sg74
I1620
sg75
I1525
sg76
I838
sg77
I1561
sg78
I1611
sg79
I1713
sg80
I1624
sg81
I692
sg82
I1697
sg83
I615
sg84
I546
sg85
I1472
sg86
I568
sg87
I1676
sg88
I1648
sg89
I1468
sg90
I807
sg91
I663
sg92
I1698
sg93
I1685
sg94
I1709
sg95
I1694
sg96
I1032
sg97
I1743
sg98
I1334
sg99
I369
sg100
I1655
sg101
I1661
sg102
I928
ssg20
(dp119
g2
I527
sg4
I583
sg5
I717
sg6
I468
sg7
I802
sg8
I802
sg9
I801
sg10
I808
sg11
I828
sg12
I816
sg13
I814
sg14
I847
sg15
I493
sg16
I447
sg17
I794
sg18
I807
sg19
I465
sg20
I0
sg21
I777
sg22
I669
sg23
I866
sg24
I763
sg25
I841
sg26
I804
sg27
I664
sg28
I870
sg29
I790
sg30
I607
sg31
I473
sg32
I729
sg33
I703
sg34
I850
sg35
I803
sg36
I734
sg37
I488
sg38
I563
sg39
I421
sg40
I506
sg41
I1046
sg42
I867
sg43
I520
sg44
I815
sg45
I777
sg46
I782
sg47
I444
sg48
I806
sg49
I803
sg50
I834
sg51
I781
sg52
I824
sg53
I501
sg54
I465
sg55
I841
sg56
I908
sg57
I779
sg58
I900
sg59
I467
sg60
I823
sg61
I843
sg62
I817
sg63
I807
sg64
I831
sg65
I754
sg66
I802
sg67
I656
sg68
I488
sg69
I846
sg70
I521
sg71
I492
sg72
I509
sg73
I560
sg74
I804
sg75
I801
sg76
I673
sg77
I665
sg78
I820
sg79
I847
sg80
I814
sg81
I703
sg82
I819
sg83
I503
sg84
I576
sg85
I823
sg86
I520
sg87
I820
sg88
I809
sg89
I838
sg90
I514
sg91
I645
sg92
I760
sg93
I839
sg94
I810
sg95
I836
sg96
I779
sg97
I841
sg98
I613
sg99
I426
sg100
I853
sg101
I785
sg102
I778
ssg21
(dp120
g2
I1176
sg4
I711
sg5
I3135
sg6
I687
sg7
I2451
sg8
I2423
sg9
I3181
sg10
I1923
sg11
I3026
sg12
I2881
sg13
I3510
sg14
I3671
sg15
I946
sg16
I862
sg17
I2867
sg18
I2501
sg19
I1714
sg20
I777
sg21
I0
sg22
I913
sg23
I2990
sg24
I3162
sg25
I3470
sg26
I2825
sg27
I823
sg28
I3253
sg29
I3017
sg30
I1882
sg31
I713
sg32
I2101
sg33
I2461
sg34
I2556
sg35
I2797
sg36
I2210
sg37
I2061
sg38
I2625
sg39
I1026
sg40
I898
sg41
I2158
sg42
I3924
sg43
I767
sg44
I2456
sg45
I2760
sg46
I2670
sg47
I1042
sg48
I2437
sg49
I2401
sg50
I2286
sg51
I2825
sg52
I2931
sg53
I1223
sg54
I698
sg55
I2377
sg56
I4108
sg57
I2515
sg58
I2749
sg59
I511
sg60
I2935
sg61
I3966
sg62
I2632
sg63
I2928
sg64
I3493
sg65
I2522
sg66
I2829
sg67
I2222
sg68
I744
sg69
I3474
sg70
I664
sg71
I1917
sg72
I1000
sg73
I2501
sg74
I2827
sg75
I2740
sg76
I1670
sg77
I3217
sg78
I3107
sg79
I3199
sg80
I2798
sg81
I3248
sg82
I2902
sg83
I749
sg84
I1421
sg85
I3145
sg86
I981
sg87
I2613
sg88
I2475
sg89
I3261
sg90
I1733
sg91
I773
sg92
I2925
sg93
I3066
sg94
I2532
sg95
I3105
sg96
I3758
sg97
I3064
sg98
I2528
sg99
I1733
sg100
I2561
sg101
I2413
sg102
I3839
ssg22
(dp121
g2
I574
sg4
I680
sg5
I785
sg6
I594
sg7
I947
sg8
I949
sg9
I932
sg10
I1029
sg11
I956
sg12
I965
sg13
I931
sg14
I930
sg15
I602
sg16
I490
sg17
I931
sg18
I937
sg19
I417
sg20
I669
sg21
I913
sg22
I0
sg23
I973
sg24
I935
sg25
I963
sg26
I939
sg27
I733
sg28
I995
sg29
I941
sg30
I540
sg31
I598
sg32
I764
sg33
I924
sg34
I911
sg35
I927
sg36
I894
sg37
I582
sg38
I778
sg39
I605
sg40
I464
sg41
I982
sg42
I1040
sg43
I656
sg44
I963
sg45
I935
sg46
I853
sg47
I584
sg48
I902
sg49
I948
sg50
I954
sg51
I909
sg52
I941
sg53
I626
sg54
I599
sg55
I973
sg56
I1029
sg57
I936
sg58
I978
sg59
I489
sg60
I945
sg61
I996
sg62
I944
sg63
I955
sg64
I967
sg65
I864
sg66
I930
sg67
I869
sg68
I613
sg69
I961
sg70
I643
sg71
I514
sg72
I704
sg73
I730
sg74
I926
sg75
I930
sg76
I680
sg77
I753
sg78
I966
sg79
I969
sg80
I939
sg81
I675
sg82
I952
sg83
I603
sg84
I612
sg85
I941
sg86
I621
sg87
I956
sg88
I969
sg89
I967
sg90
I498
sg91
I646
sg92
I836
sg93
I964
sg94
I961
sg95
I971
sg96
I1003
sg97
I963
sg98
I669
sg99
I431
sg100
I968
sg101
I935
sg102
I885
ssg23
(dp122
g2
I1320
sg4
I887
sg5
I3311
sg6
I765
sg7
I2783
sg8
I2823
sg9
I3539
sg10
I2048
sg11
I3300
sg12
I3163
sg13
I3768
sg14
I3926
sg15
I996
sg16
I1013
sg17
I3232
sg18
I2778
sg19
I1881
sg20
I866
sg21
I2990
sg22
I973
sg23
I0
sg24
I3422
sg25
I3722
sg26
I3102
sg27
I916
sg28
I3518
sg29
I3392
sg30
I2074
sg31
I792
sg32
I2166
sg33
I2697
sg34
I2897
sg35
I3045
sg36
I2313
sg37
I2282
sg38
I2838
sg39
I1221
sg40
I1012
sg41
I2125
sg42
I4127
sg43
I821
sg44
I2768
sg45
I2994
sg46
I2957
sg47
I1090
sg48
I2780
sg49
I2688
sg50
I2552
sg51
I3169
sg52
I3176
sg53
I1402
sg54
I775
sg55
I2715
sg56
I4339
sg57
I2849
sg58
I3028
sg59
I570
sg60
I3134
sg61
I4168
sg62
I2849
sg63
I3293
sg64
I3741
sg65
I2786
sg66
I3076
sg67
I2431
sg68
I824
sg69
I3684
sg70
I756
sg71
I2049
sg72
I1152
sg73
I2561
sg74
I3062
sg75
I3003
sg76
I1863
sg77
I3555
sg78
I3468
sg79
I3482
sg80
I3028
sg81
I3411
sg82
I3215
sg83
I794
sg84
I1447
sg85
I3390
sg86
I1072
sg87
I2944
sg88
I2810
sg89
I3435
sg90
I1900
sg91
I857
sg92
I3395
sg93
I3358
sg94
I2793
sg95
I3363
sg96
I3928
sg97
I3356
sg98
I2760
sg99
I1812
sg100
I2848
sg101
I2779
sg102
I4019
ssg24
(dp123
g2
I1147
sg4
I723
sg5
I2569
sg6
I704
sg7
I2389
sg8
I2452
sg9
I2741
sg10
I1897
sg11
I2450
sg12
I2720
sg13
I2989
sg14
I3564
sg15
I934
sg16
I894
sg17
I2749
sg18
I2431
sg19
I1624
sg20
I763
sg21
I3162
sg22
I935
sg23
I3422
sg24
I0
sg25
I2916
sg26
I2222
sg27
I792
sg28
I2667
sg29
I2832
sg30
I1846
sg31
I740
sg32
I2032
sg33
I2487
sg34
I2538
sg35
I2182
sg36
I2186
sg37
I2024
sg38
I2596
sg39
I1097
sg40
I799
sg41
I2025
sg42
I3941
sg43
I727
sg44
I2371
sg45
I2644
sg46
I2123
sg47
I944
sg48
I2455
sg49
I2291
sg50
I2226
sg51
I2334
sg52
I2320
sg53
I1250
sg54
I721
sg55
I2714
sg56
I4127
sg57
I2566
sg58
I2723
sg59
I540
sg60
I2291
sg61
I3262
sg62
I2503
sg63
I2939
sg64
I3393
sg65
I2488
sg66
I2185
sg67
I2276
sg68
I769
sg69
I2899
sg70
I718
sg71
I1910
sg72
I1026
sg73
I2593
sg74
I2203
sg75
I2092
sg76
I1723
sg77
I2813
sg78
I2956
sg79
I2597
sg80
I2173
sg81
I3245
sg82
I2620
sg83
I715
sg84
I1371
sg85
I2599
sg86
I1025
sg87
I2597
sg88
I2419
sg89
I1706
sg90
I1604
sg91
I764
sg92
I2900
sg93
I2394
sg94
I2416
sg95
I2463
sg96
I3751
sg97
I2580
sg98
I2484
sg99
I1697
sg100
I2522
sg101
I2452
sg102
I3847
ssg25
(dp124
g2
I1203
sg4
I733
sg5
I1094
sg6
I748
sg7
I2927
sg8
I2955
sg9
I3192
sg10
I1987
sg11
I2748
sg12
I3148
sg13
I1742
sg14
I3901
sg15
I995
sg16
I932
sg17
I3174
sg18
I2896
sg19
I1723
sg20
I841
sg21
I3470
sg22
I963
sg23
I3722
sg24
I2916
sg25
I0
sg26
I2789
sg27
I893
sg28
I2950
sg29
I3286
sg30
I1915
sg31
I786
sg32
I2153
sg33
I2537
sg34
I2946
sg35
I2748
sg36
I2538
sg37
I2143
sg38
I2826
sg39
I1126
sg40
I885
sg41
I2174
sg42
I4057
sg43
I804
sg44
I2928
sg45
I3196
sg46
I2640
sg47
I1033
sg48
I2851
sg49
I2823
sg50
I2713
sg51
I2768
sg52
I2840
sg53
I1327
sg54
I768
sg55
I3151
sg56
I4300
sg57
I2996
sg58
I3098
sg59
I582
sg60
I2785
sg61
I3036
sg62
I3024
sg63
I3428
sg64
I3777
sg65
I2898
sg66
I2783
sg67
I2316
sg68
I815
sg69
I1708
sg70
I781
sg71
I1915
sg72
I1068
sg73
I2571
sg74
I2771
sg75
I2698
sg76
I1698
sg77
I3231
sg78
I3454
sg79
I2909
sg80
I2752
sg81
I3235
sg82
I3172
sg83
I792
sg84
I1434
sg85
I1190
sg86
I1101
sg87
I3031
sg88
I2959
sg89
I2998
sg90
I1703
sg91
I834
sg92
I3257
sg93
I2737
sg94
I2972
sg95
I2592
sg96
I3793
sg97
I3046
sg98
I2885
sg99
I1722
sg100
I3044
sg101
I2940
sg102
I3926
ssg26
(dp125
g2
I1177
sg4
I705
sg5
I2465
sg6
I703
sg7
I1969
sg8
I2037
sg9
I831
sg10
I1937
sg11
I2249
sg12
I2286
sg13
I2833
sg14
I3274
sg15
I948
sg16
I917
sg17
I2552
sg18
I2017
sg19
I1624
sg20
I804
sg21
I2825
sg22
I939
sg23
I3102
sg24
I2222
sg25
I2789
sg26
I0
sg27
I873
sg28
I2492
sg29
I2494
sg30
I1862
sg31
I736
sg32
I1962
sg33
I2457
sg34
I2194
sg35
I444
sg36
I1838
sg37
I2136
sg38
I2657
sg39
I1108
sg40
I873
sg41
I2012
sg42
I3759
sg43
I794
sg44
I1968
sg45
I2334
sg46
I193
sg47
I938
sg48
I2040
sg49
I1854
sg50
I1820
sg51
I271
sg52
I904
sg53
I1248
sg54
I721
sg55
I2368
sg56
I3857
sg57
I2140
sg58
I2354
sg59
I581
sg60
I877
sg61
I3236
sg62
I2138
sg63
I2691
sg64
I3081
sg65
I2137
sg66
I493
sg67
I2240
sg68
I767
sg69
I2680
sg70
I734
sg71
I1949
sg72
I1061
sg73
I2607
sg74
I474
sg75
I512
sg76
I1761
sg77
I2303
sg78
I2585
sg79
I2374
sg80
I472
sg81
I3257
sg82
I2193
sg83
I747
sg84
I1324
sg85
I2502
sg86
I1080
sg87
I2207
sg88
I2025
sg89
I2494
sg90
I1655
sg91
I782
sg92
I2452
sg93
I2248
sg94
I1998
sg95
I2167
sg96
I3726
sg97
I1844
sg98
I2261
sg99
I1749
sg100
I2094
sg101
I2001
sg102
I3884
ssg27
(dp126
g2
I432
sg4
I567
sg5
I746
sg6
I632
sg7
I838
sg8
I871
sg9
I896
sg10
I764
sg11
I869
sg12
I850
sg13
I890
sg14
I887
sg15
I679
sg16
I676
sg17
I874
sg18
I834
sg19
I454
sg20
I664
sg21
I823
sg22
I733
sg23
I916
sg24
I792
sg25
I893
sg26
I873
sg27
I0
sg28
I898
sg29
I855
sg30
I403
sg31
I656
sg32
I457
sg33
I689
sg34
I833
sg35
I870
sg36
I763
sg37
I530
sg38
I475
sg39
I658
sg40
I314
sg41
I1083
sg42
I778
sg43
I574
sg44
I854
sg45
I820
sg46
I809
sg47
I692
sg48
I849
sg49
I844
sg50
I849
sg51
I882
sg52
I849
sg53
I512
sg54
I638
sg55
I873
sg56
I760
sg57
I866
sg58
I864
sg59
I591
sg60
I857
sg61
I893
sg62
I848
sg63
I858
sg64
I880
sg65
I788
sg66
I872
sg67
I578
sg68
I686
sg69
I874
sg70
I576
sg71
I587
sg72
I695
sg73
I689
sg74
I871
sg75
I869
sg76
I764
sg77
I710
sg78
I902
sg79
I873
sg80
I878
sg81
I570
sg82
I851
sg83
I620
sg84
I392
sg85
I875
sg86
I685
sg87
I851
sg88
I851
sg89
I831
sg90
I399
sg91
I637
sg92
I799
sg93
I891
sg94
I838
sg95
I864
sg96
I779
sg97
I870
sg98
I752
sg99
I413
sg100
I854
sg101
I856
sg102
I770
ssg28
(dp127
g2
I1271
sg4
I803
sg5
I2661
sg6
I781
sg7
I2621
sg8
I2597
sg9
I3021
sg10
I2021
sg11
I1217
sg12
I2864
sg13
I3121
sg14
I3754
sg15
I1019
sg16
I964
sg17
I3017
sg18
I2560
sg19
I1767
sg20
I870
sg21
I3253
sg22
I995
sg23
I3518
sg24
I2667
sg25
I2950
sg26
I2492
sg27
I898
sg28
I0
sg29
I3087
sg30
I1969
sg31
I816
sg32
I2129
sg33
I2604
sg34
I2722
sg35
I2462
sg36
I2208
sg37
I2221
sg38
I2804
sg39
I1183
sg40
I921
sg41
I2157
sg42
I4033
sg43
I857
sg44
I2610
sg45
I2917
sg46
I2349
sg47
I1063
sg48
I2618
sg49
I2496
sg50
I2414
sg51
I2526
sg52
I2565
sg53
I1368
sg54
I795
sg55
I2894
sg56
I4146
sg57
I2766
sg58
I2863
sg59
I611
sg60
I2490
sg61
I3394
sg62
I2697
sg63
I3219
sg64
I3583
sg65
I2655
sg66
I2464
sg67
I2412
sg68
I848
sg69
I2986
sg70
I784
sg71
I2059
sg72
I1161
sg73
I2677
sg74
I2484
sg75
I2383
sg76
I1841
sg77
I2951
sg78
I3202
sg79
I1461
sg80
I2463
sg81
I3382
sg82
I2913
sg83
I777
sg84
I1400
sg85
I2719
sg86
I1164
sg87
I2796
sg88
I2692
sg89
I2839
sg90
I1738
sg91
I846
sg92
I3021
sg93
I1527
sg94
I2631
sg95
I2485
sg96
I3810
sg97
I2763
sg98
I2756
sg99
I1858
sg100
I2748
sg101
I2671
sg102
I4051
ssg29
(dp128
g2
I1157
sg4
I705
sg5
I2906
sg6
I696
sg7
I2354
sg8
I2315
sg9
I2910
sg10
I1941
sg11
I2871
sg12
I2125
sg13
I3267
sg14
I3141
sg15
I971
sg16
I894
sg17
I2712
sg18
I2318
sg19
I1693
sg20
I790
sg21
I3017
sg22
I941
sg23
I3392
sg24
I2832
sg25
I3286
sg26
I2494
sg27
I855
sg28
I3087
sg29
I0
sg30
I1912
sg31
I728
sg32
I2109
sg33
I2499
sg34
I2446
sg35
I2446
sg36
I2123
sg37
I2074
sg38
I2664
sg39
I1089
sg40
I852
sg41
I2076
sg42
I3924
sg43
I770
sg44
I2229
sg45
I2619
sg46
I2377
sg47
I1025
sg48
I2296
sg49
I2198
sg50
I2176
sg51
I2505
sg52
I2581
sg53
I1263
sg54
I712
sg55
I2719
sg56
I4137
sg57
I2399
sg58
I2595
sg59
I556
sg60
I2583
sg61
I3695
sg62
I2441
sg63
I2939
sg64
I2979
sg65
I2401
sg66
I2457
sg67
I2276
sg68
I760
sg69
I3230
sg70
I731
sg71
I1890
sg72
I1036
sg73
I2573
sg74
I2463
sg75
I2399
sg76
I1744
sg77
I2915
sg78
I2505
sg79
I3033
sg80
I2438
sg81
I3192
sg82
I2157
sg83
I772
sg84
I1366
sg85
I2877
sg86
I1055
sg87
I2467
sg88
I2429
sg89
I2982
sg90
I1648
sg91
I803
sg92
I2338
sg93
I2808
sg94
I2352
sg95
I2734
sg96
I3816
sg97
I2825
sg98
I2403
sg99
I1696
sg100
I2454
sg101
I2286
sg102
I3853
ssg30
(dp129
g2
I526
sg4
I637
sg5
I1451
sg6
I674
sg7
I1830
sg8
I1878
sg9
I1920
sg10
I706
sg11
I1917
sg12
I1815
sg13
I1898
sg14
I1833
sg15
I699
sg16
I592
sg17
I1502
sg18
I1803
sg19
I656
sg20
I607
sg21
I1882
sg22
I540
sg23
I2074
sg24
I1846
sg25
I1915
sg26
I1862
sg27
I403
sg28
I1969
sg29
I1912
sg30
I0
sg31
I680
sg32
I812
sg33
I1210
sg34
I1723
sg35
I1859
sg36
I1464
sg37
I988
sg38
I701
sg39
I975
sg40
I508
sg41
I1081
sg42
I1879
sg43
I567
sg44
I1897
sg45
I1853
sg46
I1616
sg47
I668
sg48
I1687
sg49
I1876
sg50
I1628
sg51
I1874
sg52
I1857
sg53
I754
sg54
I675
sg55
I1881
sg56
I2154
sg57
I1883
sg58
I1960
sg59
I573
sg60
I1851
sg61
I2142
sg62
I1839
sg63
I1762
sg64
I1901
sg65
I1652
sg66
I1850
sg67
I1186
sg68
I680
sg69
I1897
sg70
I827
sg71
I680
sg72
I685
sg73
I783
sg74
I1858
sg75
I1860
sg76
I965
sg77
I1741
sg78
I1977
sg79
I1925
sg80
I1863
sg81
I798
sg82
I1928
sg83
I704
sg84
I397
sg85
I1485
sg86
I791
sg87
I1889
sg88
I1859
sg89
I1465
sg90
I626
sg91
I574
sg92
I1894
sg93
I1901
sg94
I1931
sg95
I1896
sg96
I1383
sg97
I1910
sg98
I1374
sg99
I486
sg100
I1879
sg101
I1880
sg102
I1203
ssg31
(dp130
g2
I482
sg4
I529
sg5
I543
sg6
I30
sg7
I738
sg8
I717
sg9
I721
sg10
I900
sg11
I801
sg12
I682
sg13
I739
sg14
I709
sg15
I77
sg16
I436
sg17
I575
sg18
I630
sg19
I461
sg20
I473
sg21
I713
sg22
I598
sg23
I792
sg24
I740
sg25
I786
sg26
I736
sg27
I656
sg28
I816
sg29
I728
sg30
I680
sg31
I0
sg32
I698
sg33
I764
sg34
I586
sg35
I732
sg36
I652
sg37
I548
sg38
I719
sg39
I311
sg40
I483
sg41
I890
sg42
I794
sg43
I331
sg44
I761
sg45
I730
sg46
I564
sg47
I460
sg48
I581
sg49
I734
sg50
I622
sg51
I719
sg52
I739
sg53
I644
sg54
I22
sg55
I764
sg56
I775
sg57
I698
sg58
I764
sg59
I385
sg60
I726
sg61
I800
sg62
I719
sg63
I767
sg64
I645
sg65
I540
sg66
I727
sg67
I785
sg68
I18
sg69
I755
sg70
I541
sg71
I532
sg72
I309
sg73
I736
sg74
I729
sg75
I729
sg76
I893
sg77
I565
sg78
I724
sg79
I801
sg80
I742
sg81
I579
sg82
I743
sg83
I475
sg84
I545
sg85
I616
sg86
I379
sg87
I741
sg88
I735
sg89
I625
sg90
I479
sg91
I642
sg92
I623
sg93
I794
sg94
I736
sg95
I743
sg96
I797
sg97
I760
sg98
I434
sg99
I550
sg100
I791
sg101
I714
sg102
I823
ssg32
(dp131
g2
I1032
sg4
I486
sg5
I1699
sg6
I690
sg7
I1950
sg8
I2004
sg9
I2117
sg10
I1558
sg11
I2100
sg12
I2004
sg13
I2138
sg14
I2264
sg15
I1074
sg16
I654
sg17
I1815
sg18
I1877
sg19
I647
sg20
I729
sg21
I2101
sg22
I764
sg23
I2166
sg24
I2032
sg25
I2153
sg26
I1962
sg27
I457
sg28
I2129
sg29
I2109
sg30
I812
sg31
I698
sg32
I0
sg33
I1526
sg34
I1899
sg35
I1996
sg36
I1883
sg37
I1055
sg38
I1439
sg39
I1015
sg40
I440
sg41
I1696
sg42
I1342
sg43
I709
sg44
I1979
sg45
I2033
sg46
I1763
sg47
I796
sg48
I1845
sg49
I1957
sg50
I1747
sg51
I1982
sg52
I1981
sg53
I1079
sg54
I695
sg55
I2054
sg56
I1154
sg57
I2026
sg58
I2100
sg59
I522
sg60
I1945
sg61
I2356
sg62
I1958
sg63
I1880
sg64
I2104
sg65
I1692
sg66
I1981
sg67
I1252
sg68
I726
sg69
I2193
sg70
I797
sg71
I1550
sg72
I745
sg73
I2293
sg74
I2011
sg75
I1972
sg76
I1208
sg77
I1996
sg78
I2163
sg79
I2141
sg80
I2001
sg81
I1913
sg82
I2078
sg83
I557
sg84
I888
sg85
I1780
sg86
I860
sg87
I2017
sg88
I2001
sg89
I1793
sg90
I422
sg91
I639
sg92
I2122
sg93
I2075
sg94
I1920
sg95
I2045
sg96
I1546
sg97
I2018
sg98
I1624
sg99
I1636
sg100
I1991
sg101
I1984
sg102
I2672
ssg33
(dp132
g2
I427
sg4
I738
sg5
I2013
sg6
I739
sg7
I2446
sg8
I2421
sg9
I2401
sg10
I1317
sg11
I2572
sg12
I2467
sg13
I2541
sg14
I2430
sg15
I868
sg16
I794
sg17
I2111
sg18
I2389
sg19
I658
sg20
I703
sg21
I2461
sg22
I924
sg23
I2697
sg24
I2487
sg25
I2537
sg26
I2457
sg27
I689
sg28
I2604
sg29
I2499
sg30
I1210
sg31
I764
sg32
I1526
sg33
I0
sg34
I2223
sg35
I2456
sg36
I2335
sg37
I912
sg38
I1204
sg39
I1088
sg40
I629
sg41
I1106
sg42
I2538
sg43
I740
sg44
I2517
sg45
I2501
sg46
I2155
sg47
I697
sg48
I2235
sg49
I2475
sg50
I2202
sg51
I2455
sg52
I2466
sg53
I825
sg54
I742
sg55
I2545
sg56
I2632
sg57
I2476
sg58
I2516
sg59
I647
sg60
I2485
sg61
I2840
sg62
I2463
sg63
I2348
sg64
I2488
sg65
I2051
sg66
I2451
sg67
I1113
sg68
I784
sg69
I2547
sg70
I858
sg71
I500
sg72
I936
sg73
I859
sg74
I2457
sg75
I2461
sg76
I975
sg77
I2217
sg78
I2619
sg79
I2566
sg80
I2465
sg81
I1205
sg82
I2549
sg83
I747
sg84
I567
sg85
I2116
sg86
I870
sg87
I2480
sg88
I2489
sg89
I2087
sg90
I657
sg91
I739
sg92
I2382
sg93
I2549
sg94
I2474
sg95
I2523
sg96
I1830
sg97
I2541
sg98
I1853
sg99
I433
sg100
I2487
sg101
I2437
sg102
I1826
ssg34
(dp133
g2
I1143
sg4
I685
sg5
I2713
sg6
I560
sg7
I1691
sg8
I1698
sg9
I2647
sg10
I1836
sg11
I2506
sg12
I2298
sg13
I3012
sg14
I3208
sg15
I798
sg16
I855
sg17
I2335
sg18
I1536
sg19
I1671
sg20
I850
sg21
I2556
sg22
I911
sg23
I2897
sg24
I2538
sg25
I2946
sg26
I2194
sg27
I833
sg28
I2722
sg29
I2446
sg30
I1723
sg31
I586
sg32
I1899
sg33
I2223
sg34
I0
sg35
I2153
sg36
I1607
sg37
I1968
sg38
I2467
sg39
I890
sg40
I897
sg41
I2039
sg42
I3644
sg43
I818
sg44
I1642
sg45
I2071
sg46
I2178
sg47
I1007
sg48
I1571
sg49
I1588
sg50
I1606
sg51
I2228
sg52
I2289
sg53
I1067
sg54
I567
sg55
I2165
sg56
I3865
sg57
I1838
sg58
I377
sg59
I541
sg60
I2261
sg61
I3351
sg62
I1561
sg63
I2354
sg64
I3115
sg65
I257
sg66
I2175
sg67
I1985
sg68
I608
sg69
I2951
sg70
I668
sg71
I1809
sg72
I1004
sg73
I2358
sg74
I2181
sg75
I2131
sg76
I1511
sg77
I2747
sg78
I2579
sg79
I2663
sg80
I2145
sg81
I3206
sg82
I2239
sg83
I713
sg84
I1400
sg85
I2702
sg86
I867
sg87
I392
sg88
I1753
sg89
I2814
sg90
I1659
sg91
I826
sg92
I2450
sg93
I2454
sg94
I1209
sg95
I2492
sg96
I3536
sg97
I2529
sg98
I1992
sg99
I1632
sg100
I1823
sg101
I1189
sg102
I3677
ssg35
(dp134
g2
I1179
sg4
I691
sg5
I2410
sg6
I701
sg7
I1932
sg8
I1994
sg9
I1046
sg10
I1934
sg11
I2184
sg12
I2278
sg13
I2809
sg14
I3243
sg15
I940
sg16
I905
sg17
I2481
sg18
I1973
sg19
I1611
sg20
I803
sg21
I2797
sg22
I927
sg23
I3045
sg24
I2182
sg25
I2748
sg26
I444
sg27
I870
sg28
I2462
sg29
I2446
sg30
I1859
sg31
I732
sg32
I1996
sg33
I2456
sg34
I2153
sg35
I0
sg36
I1824
sg37
I2098
sg38
I2620
sg39
I1097
sg40
I874
sg41
I2025
sg42
I3718
sg43
I787
sg44
I1913
sg45
I2281
sg46
I396
sg47
I930
sg48
I1995
sg49
I1775
sg50
I1769
sg51
I515
sg52
I822
sg53
I1253
sg54
I720
sg55
I2344
sg56
I3868
sg57
I2099
sg58
I2316
sg59
I572
sg60
I797
sg61
I3180
sg62
I2084
sg63
I2646
sg64
I3042
sg65
I2105
sg66
I228
sg67
I2231
sg68
I763
sg69
I2649
sg70
I719
sg71
I1950
sg72
I1050
sg73
I2615
sg74
I103
sg75
I299
sg76
I1752
sg77
I2257
sg78
I2543
sg79
I2348
sg80
I97
sg81
I3228
sg82
I2164
sg83
I728
sg84
I1321
sg85
I2459
sg86
I1072
sg87
I2175
sg88
I1970
sg89
I2440
sg90
I1612
sg91
I780
sg92
I2423
sg93
I2205
sg94
I1965
sg95
I2125
sg96
I3659
sg97
I1797
sg98
I2197
sg99
I1751
sg100
I2052
sg101
I1976
sg102
I3879
ssg36
(dp135
g2
I1095
sg4
I498
sg5
I2208
sg6
I640
sg7
I1469
sg8
I1470
sg9
I2252
sg10
I1834
sg11
I2110
sg12
I1900
sg13
I2640
sg14
I2836
sg15
I911
sg16
I780
sg17
I1572
sg18
I1337
sg19
I1211
sg20
I734
sg21
I2210
sg22
I894
sg23
I2313
sg24
I2186
sg25
I2538
sg26
I1838
sg27
I763
sg28
I2208
sg29
I2123
sg30
I1464
sg31
I652
sg32
I1883
sg33
I2335
sg34
I1607
sg35
I1824
sg36
I0
sg37
I1500
sg38
I1892
sg39
I927
sg40
I512
sg41
I1637
sg42
I3268
sg43
I734
sg44
I1339
sg45
I1388
sg46
I1738
sg47
I738
sg48
I1406
sg49
I1252
sg50
I1255
sg51
I1850
sg52
I1905
sg53
I1175
sg54
I658
sg55
I1836
sg56
I3623
sg57
I249
sg58
I1818
sg59
I540
sg60
I1845
sg61
I3018
sg62
I1532
sg63
I2035
sg64
I2625
sg65
I1556
sg66
I1812
sg67
I2166
sg68
I682
sg69
I2580
sg70
I698
sg71
I1544
sg72
I820
sg73
I2287
sg74
I1795
sg75
I1709
sg76
I1339
sg77
I2291
sg78
I2284
sg79
I2266
sg80
I1834
sg81
I2454
sg82
I1919
sg83
I664
sg84
I1016
sg85
I2225
sg86
I1009
sg87
I1649
sg88
I1528
sg89
I2235
sg90
I1040
sg91
I570
sg92
I2117
sg93
I2064
sg94
I1425
sg95
I2122
sg96
I3186
sg97
I2152
sg98
I1360
sg99
I1425
sg100
I1579
sg101
I1533
sg102
I3398
ssg37
(dp136
g2
I517
sg4
I650
sg5
I1858
sg6
I530
sg7
I2082
sg8
I2082
sg9
I2134
sg10
I599
sg11
I2096
sg12
I2078
sg13
I2129
sg14
I1848
sg15
I727
sg16
I498
sg17
I1915
sg18
I2083
sg19
I849
sg20
I488
sg21
I2061
sg22
I582
sg23
I2282
sg24
I2024
sg25
I2143
sg26
I2136
sg27
I530
sg28
I2221
sg29
I2074
sg30
I988
sg31
I548
sg32
I1055
sg33
I912
sg34
I1968
sg35
I2098
sg36
I1500
sg37
I0
sg38
I1000
sg39
I684
sg40
I567
sg41
I1371
sg42
I1865
sg43
I469
sg44
I2082
sg45
I2061
sg46
I1947
sg47
I748
sg48
I1955
sg49
I2045
sg50
I1933
sg51
I2136
sg52
I2117
sg53
I507
sg54
I528
sg55
I2103
sg56
I2062
sg57
I2057
sg58
I2044
sg59
I447
sg60
I2114
sg61
I2272
sg62
I2017
sg63
I2014
sg64
I2168
sg65
I1944
sg66
I2119
sg67
I868
sg68
I543
sg69
I2132
sg70
I604
sg71
I757
sg72
I601
sg73
I738
sg74
I2096
sg75
I2101
sg76
I898
sg77
I1962
sg78
I2012
sg79
I2142
sg80
I2093
sg81
I1213
sg82
I2168
sg83
I504
sg84
I722
sg85
I1931
sg86
I564
sg87
I2066
sg88
I2080
sg89
I1963
sg90
I672
sg91
I714
sg92
I2129
sg93
I2133
sg94
I2054
sg95
I2136
sg96
I1273
sg97
I2161
sg98
I1779
sg99
I489
sg100
I2104
sg101
I2019
sg102
I1310
ssg38
(dp137
g2
I615
sg4
I767
sg5
I2420
sg6
I707
sg7
I2640
sg8
I2643
sg9
I2692
sg10
I1209
sg11
I2688
sg12
I2570
sg13
I2761
sg14
I2710
sg15
I905
sg16
I874
sg17
I2521
sg18
I2493
sg19
I782
sg20
I563
sg21
I2625
sg22
I778
sg23
I2838
sg24
I2596
sg25
I2826
sg26
I2657
sg27
I475
sg28
I2804
sg29
I2664
sg30
I701
sg31
I719
sg32
I1439
sg33
I1204
sg34
I2467
sg35
I2620
sg36
I1892
sg37
I1000
sg38
I0
sg39
I712
sg40
I482
sg41
I1491
sg42
I2076
sg43
I729
sg44
I2639
sg45
I2605
sg46
I2410
sg47
I602
sg48
I2432
sg49
I2625
sg50
I2461
sg51
I2692
sg52
I2639
sg53
I754
sg54
I714
sg55
I2672
sg56
I2203
sg57
I2643
sg58
I2577
sg59
I583
sg60
I2622
sg61
I2792
sg62
I2629
sg63
I2618
sg64
I2497
sg65
I2220
sg66
I2643
sg67
I881
sg68
I718
sg69
I2720
sg70
I590
sg71
I831
sg72
I962
sg73
I1019
sg74
I2625
sg75
I2510
sg76
I1101
sg77
I2480
sg78
I2630
sg79
I2727
sg80
I2614
sg81
I1018
sg82
I2690
sg83
I591
sg84
I273
sg85
I2525
sg86
I843
sg87
I2648
sg88
I2634
sg89
I2512
sg90
I774
sg91
I628
sg92
I2650
sg93
I2680
sg94
I2718
sg95
I2670
sg96
I1442
sg97
I2702
sg98
I2282
sg99
I807
sg100
I2716
sg101
I2688
sg102
I1353
ssg39
(dp138
g2
I507
sg4
I560
sg5
I660
sg6
I297
sg7
I1101
sg8
I1089
sg9
I1103
sg10
I836
sg11
I1132
sg12
I1087
sg13
I1131
sg14
I1005
sg15
I307
sg16
I399
sg17
I673
sg18
I1031
sg19
I705
sg20
I421
sg21
I1026
sg22
I605
sg23
I1221
sg24
I1097
sg25
I1126
sg26
I1108
sg27
I658
sg28
I1183
sg29
I1089
sg30
I975
sg31
I311
sg32
I1015
sg33
I1088
sg34
I890
sg35
I1097
sg36
I927
sg37
I684
sg38
I712
sg39
I0
sg40
I473
sg41
I938
sg42
I1048
sg43
I299
sg44
I1132
sg45
I1090
sg46
I791
sg47
I487
sg48
I895
sg49
I1110
sg50
I854
sg51
I1043
sg52
I1112
sg53
I918
sg54
I289
sg55
I1146
sg56
I1165
sg57
I1081
sg58
I1093
sg59
I369
sg60
I1069
sg61
I1230
sg62
I1092
sg63
I936
sg64
I1012
sg65
I833
sg66
I1103
sg67
I1171
sg68
I302
sg69
I1145
sg70
I762
sg71
I484
sg72
I331
sg73
I946
sg74
I1106
sg75
I1113
sg76
I1220
sg77
I876
sg78
I1143
sg79
I1130
sg80
I1106
sg81
I577
sg82
I1122
sg83
I424
sg84
I583
sg85
I706
sg86
I418
sg87
I1113
sg88
I1112
sg89
I709
sg90
I515
sg91
I600
sg92
I955
sg93
I1120
sg94
I1122
sg95
I1143
sg96
I1095
sg97
I1142
sg98
I516
sg99
I504
sg100
I1164
sg101
I1097
sg102
I989
ssg40
(dp139
g2
I498
sg4
I613
sg5
I806
sg6
I484
sg7
I870
sg8
I905
sg9
I896
sg10
I597
sg11
I893
sg12
I878
sg13
I825
sg14
I909
sg15
I506
sg16
I510
sg17
I898
sg18
I899
sg19
I543
sg20
I506
sg21
I898
sg22
I464
sg23
I1012
sg24
I799
sg25
I885
sg26
I873
sg27
I314
sg28
I921
sg29
I852
sg30
I508
sg31
I483
sg32
I440
sg33
I629
sg34
I897
sg35
I874
sg36
I512
sg37
I567
sg38
I482
sg39
I473
sg40
I0
sg41
I1020
sg42
I768
sg43
I482
sg44
I867
sg45
I851
sg46
I852
sg47
I642
sg48
I886
sg49
I861
sg50
I879
sg51
I885
sg52
I855
sg53
I567
sg54
I483
sg55
I893
sg56
I713
sg57
I877
sg58
I865
sg59
I499
sg60
I884
sg61
I882
sg62
I864
sg63
I863
sg64
I901
sg65
I812
sg66
I873
sg67
I593
sg68
I483
sg69
I863
sg70
I552
sg71
I531
sg72
I612
sg73
I583
sg74
I874
sg75
I872
sg76
I784
sg77
I738
sg78
I874
sg79
I892
sg80
I877
sg81
I459
sg82
I882
sg83
I491
sg84
I283
sg85
I864
sg86
I529
sg87
I893
sg88
I872
sg89
I876
sg90
I472
sg91
I562
sg92
I871
sg93
I876
sg94
I861
sg95
I861
sg96
I649
sg97
I881
sg98
I828
sg99
I452
sg100
I884
sg101
I867
sg102
I643
ssg41
(dp140
g2
I1532
sg4
I811
sg5
I2056
sg6
I868
sg7
I1973
sg8
I2033
sg9
I2182
sg10
I1476
sg11
I2118
sg12
I2021
sg13
I2201
sg14
I2325
sg15
I1072
sg16
I1043
sg17
I2182
sg18
I1977
sg19
I1225
sg20
I1046
sg21
I2158
sg22
I982
sg23
I2125
sg24
I2025
sg25
I2174
sg26
I2012
sg27
I1083
sg28
I2157
sg29
I2076
sg30
I1081
sg31
I890
sg32
I1696
sg33
I1106
sg34
I2039
sg35
I2025
sg36
I1637
sg37
I1371
sg38
I1491
sg39
I938
sg40
I1020
sg41
I0
sg42
I2422
sg43
I963
sg44
I1958
sg45
I1987
sg46
I2014
sg47
I1324
sg48
I2035
sg49
I1936
sg50
I1949
sg51
I2048
sg52
I2025
sg53
I999
sg54
I869
sg55
I2090
sg56
I2328
sg57
I2032
sg58
I2125
sg59
I806
sg60
I2019
sg61
I2272
sg62
I1978
sg63
I2107
sg64
I2224
sg65
I1930
sg66
I2028
sg67
I1215
sg68
I917
sg69
I2213
sg70
I855
sg71
I2107
sg72
I1052
sg73
I2536
sg74
I2024
sg75
I1849
sg76
I1396
sg77
I2043
sg78
I2189
sg79
I2180
sg80
I2031
sg81
I2486
sg82
I2055
sg83
I877
sg84
I1115
sg85
I2158
sg86
I1105
sg87
I2010
sg88
I2021
sg89
I2171
sg90
I1064
sg91
I1142
sg92
I2076
sg93
I2078
sg94
I2020
sg95
I2038
sg96
I1351
sg97
I2047
sg98
I1906
sg99
I2024
sg100
I2005
sg101
I2010
sg102
I2556
ssg42
(dp141
g2
I1208
sg4
I762
sg5
I3672
sg6
I779
sg7
I3777
sg8
I3752
sg9
I3759
sg10
I2108
sg11
I3960
sg12
I3791
sg13
I4093
sg14
I3985
sg15
I1144
sg16
I946
sg17
I3747
sg18
I3645
sg19
I1334
sg20
I867
sg21
I3924
sg22
I1040
sg23
I4127
sg24
I3941
sg25
I4057
sg26
I3759
sg27
I778
sg28
I4033
sg29
I3924
sg30
I1879
sg31
I794
sg32
I1342
sg33
I2538
sg34
I3644
sg35
I3718
sg36
I3268
sg37
I1865
sg38
I2076
sg39
I1048
sg40
I768
sg41
I2422
sg42
I0
sg43
I895
sg44
I3805
sg45
I3905
sg46
I3554
sg47
I1095
sg48
I3582
sg49
I3738
sg50
I3539
sg51
I3766
sg52
I3751
sg53
I1096
sg54
I794
sg55
I3880
sg56
I1779
sg57
I3716
sg58
I3825
sg59
I600
sg60
I3749
sg61
I4349
sg62
I3776
sg63
I3894
sg64
I3944
sg65
I3542
sg66
I3751
sg67
I2098
sg68
I832
sg69
I4062
sg70
I714
sg71
I1801
sg72
I1166
sg73
I2545
sg74
I3728
sg75
I3544
sg76
I1474
sg77
I3707
sg78
I3890
sg79
I4000
sg80
I3707
sg81
I3251
sg82
I3837
sg83
I854
sg84
I1170
sg85
I3719
sg86
I1060
sg87
I3785
sg88
I3797
sg89
I3917
sg90
I912
sg91
I798
sg92
I3821
sg93
I3959
sg94
I3731
sg95
I3949
sg96
I2974
sg97
I3918
sg98
I3461
sg99
I1774
sg100
I3803
sg101
I3696
sg102
I3728
ssg43
(dp142
g2
I492
sg4
I534
sg5
I703
sg6
I329
sg7
I786
sg8
I773
sg9
I785
sg10
I978
sg11
I824
sg12
I798
sg13
I844
sg14
I771
sg15
I367
sg16
I414
sg17
I796
sg18
I787
sg19
I465
sg20
I520
sg21
I767
sg22
I656
sg23
I821
sg24
I727
sg25
I804
sg26
I794
sg27
I574
sg28
I857
sg29
I770
sg30
I567
sg31
I331
sg32
I709
sg33
I740
sg34
I818
sg35
I787
sg36
I734
sg37
I469
sg38
I729
sg39
I299
sg40
I482
sg41
I963
sg42
I895
sg43
I0
sg44
I796
sg45
I805
sg46
I768
sg47
I524
sg48
I771
sg49
I787
sg50
I803
sg51
I767
sg52
I796
sg53
I498
sg54
I326
sg55
I787
sg56
I879
sg57
I759
sg58
I887
sg59
I404
sg60
I808
sg61
I893
sg62
I788
sg63
I793
sg64
I812
sg65
I763
sg66
I787
sg67
I758
sg68
I355
sg69
I816
sg70
I482
sg71
I425
sg72
I168
sg73
I518
sg74
I786
sg75
I752
sg76
I691
sg77
I638
sg78
I783
sg79
I831
sg80
I791
sg81
I632
sg82
I794
sg83
I469
sg84
I582
sg85
I782
sg86
I271
sg87
I788
sg88
I787
sg89
I803
sg90
I523
sg91
I621
sg92
I745
sg93
I823
sg94
I786
sg95
I820
sg96
I785
sg97
I811
sg98
I634
sg99
I374
sg100
I823
sg101
I760
sg102
I841
ssg44
(dp143
g2
I1159
sg4
I725
sg5
I2530
sg6
I730
sg7
I1406
sg8
I1478
sg9
I2510
sg10
I1957
sg11
I2382
sg12
I2008
sg13
I2966
sg14
I3136
sg15
I971
sg16
I913
sg17
I2053
sg18
I1412
sg19
I1648
sg20
I815
sg21
I2456
sg22
I963
sg23
I2768
sg24
I2371
sg25
I2928
sg26
I1968
sg27
I854
sg28
I2610
sg29
I2229
sg30
I1897
sg31
I761
sg32
I1979
sg33
I2517
sg34
I1642
sg35
I1913
sg36
I1339
sg37
I2082
sg38
I2639
sg39
I1132
sg40
I867
sg41
I1958
sg42
I3805
sg43
I796
sg44
I0
sg45
I1763
sg46
I1845
sg47
I966
sg48
I1461
sg49
I873
sg50
I1233
sg51
I2061
sg52
I2083
sg53
I1266
sg54
I746
sg55
I1956
sg56
I3939
sg57
I1600
sg58
I1823
sg59
I587
sg60
I2054
sg61
I3328
sg62
I1545
sg63
I2171
sg64
I2969
sg65
I1600
sg66
I1925
sg67
I2287
sg68
I792
sg69
I2880
sg70
I777
sg71
I1912
sg72
I1064
sg73
I2585
sg74
I1880
sg75
I1822
sg76
I1773
sg77
I2597
sg78
I2461
sg79
I2539
sg80
I1914
sg81
I3190
sg82
I1977
sg83
I736
sg84
I1368
sg85
I2562
sg86
I1096
sg87
I1657
sg88
I1529
sg89
I2529
sg90
I1621
sg91
I781
sg92
I2275
sg93
I2308
sg94
I1395
sg95
I2280
sg96
I3719
sg97
I2334
sg98
I1733
sg99
I1716
sg100
I1531
sg101
I1426
sg102
I3878
ssg45
(dp144
g2
I1136
sg4
I691
sg5
I2810
sg6
I697
sg7
I1872
sg8
I1923
sg9
I2811
sg10
I1913
sg11
I2695
sg12
I2437
sg13
I3193
sg14
I3368
sg15
I947
sg16
I914
sg17
I1214
sg18
I1846
sg19
I1600
sg20
I777
sg21
I2760
sg22
I935
sg23
I2994
sg24
I2644
sg25
I3196
sg26
I2334
sg27
I820
sg28
I2917
sg29
I2619
sg30
I1853
sg31
I730
sg32
I2033
sg33
I2501
sg34
I2071
sg35
I2281
sg36
I1388
sg37
I2061
sg38
I2605
sg39
I1090
sg40
I851
sg41
I1987
sg42
I3905
sg43
I805
sg44
I1763
sg45
I0
sg46
I2251
sg47
I908
sg48
I1910
sg49
I1672
sg50
I1687
sg51
I2433
sg52
I2450
sg53
I1238
sg54
I715
sg55
I2285
sg56
I4088
sg57
I1679
sg58
I2227
sg59
I561
sg60
I2391
sg61
I3581
sg62
I1942
sg63
I2399
sg64
I3207
sg65
I1987
sg66
I2291
sg67
I2304
sg68
I759
sg69
I3098
sg70
I740
sg71
I1916
sg72
I1049
sg73
I2591
sg74
I2248
sg75
I2183
sg76
I1666
sg77
I2861
sg78
I2793
sg79
I2875
sg80
I2285
sg81
I3154
sg82
I2401
sg83
I725
sg84
I1306
sg85
I2820
sg86
I1045
sg87
I2065
sg88
I1940
sg89
I2790
sg90
I1561
sg91
I756
sg92
I2621
sg93
I2684
sg94
I1884
sg95
I2660
sg96
I3654
sg97
I2652
sg98
I514
sg99
I1730
sg100
I1976
sg101
I1914
sg102
I3843
ssg46
(dp145
g2
I1160
sg4
I644
sg5
I2447
sg6
I537
sg7
I1896
sg8
I1964
sg9
I792
sg10
I1777
sg11
I2094
sg12
I2170
sg13
I2727
sg14
I3171
sg15
I769
sg16
I799
sg17
I2530
sg18
I1964
sg19
I1551
sg20
I782
sg21
I2670
sg22
I853
sg23
I2957
sg24
I2123
sg25
I2640
sg26
I193
sg27
I809
sg28
I2349
sg29
I2377
sg30
I1616
sg31
I564
sg32
I1763
sg33
I2155
sg34
I2178
sg35
I396
sg36
I1738
sg37
I1947
sg38
I2410
sg39
I791
sg40
I852
sg41
I2014
sg42
I3554
sg43
I768
sg44
I1845
sg45
I2251
sg46
I0
sg47
I935
sg48
I2022
sg49
I1774
sg50
I1809
sg51
I153
sg52
I845
sg53
I1028
sg54
I547
sg55
I2256
sg56
I3674
sg57
I2055
sg58
I2280
sg59
I500
sg60
I795
sg61
I3074
sg62
I2046
sg63
I2557
sg64
I3028
sg65
I2120
sg66
I450
sg67
I1876
sg68
I588
sg69
I2558
sg70
I587
sg71
I1824
sg72
I954
sg73
I2285
sg74
I431
sg75
I458
sg76
I1416
sg77
I2221
sg78
I2490
sg79
I2237
sg80
I403
sg81
I3221
sg82
I2117
sg83
I662
sg84
I1328
sg85
I2480
sg86
I813
sg87
I2118
sg88
I1943
sg89
I2481
sg90
I1626
sg91
I758
sg92
I2373
sg93
I2089
sg94
I1923
sg95
I2062
sg96
I3404
sg97
I1750
sg98
I2257
sg99
I1622
sg100
I2016
sg101
I1927
sg102
I3604
ssg47
(dp146
g2
I664
sg4
I578
sg5
I872
sg6
I455
sg7
I957
sg8
I1009
sg9
I1006
sg10
I891
sg11
I1018
sg12
I986
sg13
I1023
sg14
I1074
sg15
I470
sg16
I500
sg17
I968
sg18
I1000
sg19
I635
sg20
I444
sg21
I1042
sg22
I584
sg23
I1090
sg24
I944
sg25
I1033
sg26
I938
sg27
I692
sg28
I1063
sg29
I1025
sg30
I668
sg31
I460
sg32
I796
sg33
I697
sg34
I1007
sg35
I930
sg36
I738
sg37
I748
sg38
I602
sg39
I487
sg40
I642
sg41
I1324
sg42
I1095
sg43
I524
sg44
I966
sg45
I908
sg46
I935
sg47
I0
sg48
I993
sg49
I944
sg50
I959
sg51
I965
sg52
I950
sg53
I563
sg54
I451
sg55
I970
sg56
I1062
sg57
I964
sg58
I1061
sg59
I446
sg60
I955
sg61
I1054
sg62
I978
sg63
I1006
sg64
I1027
sg65
I896
sg66
I932
sg67
I809
sg68
I468
sg69
I1002
sg70
I489
sg71
I718
sg72
I589
sg73
I852
sg74
I931
sg75
I930
sg76
I852
sg77
I847
sg78
I1038
sg79
I1008
sg80
I944
sg81
I842
sg82
I976
sg83
I338
sg84
I547
sg85
I1006
sg86
I543
sg87
I986
sg88
I951
sg89
I1004
sg90
I632
sg91
I749
sg92
I981
sg93
I989
sg94
I957
sg95
I1003
sg96
I693
sg97
I979
sg98
I846
sg99
I680
sg100
I958
sg101
I977
sg102
I876
ssg48
(dp147
g2
I1176
sg4
I676
sg5
I2642
sg6
I554
sg7
I1537
sg8
I1534
sg9
I2469
sg10
I1863
sg11
I2363
sg12
I2153
sg13
I2866
sg14
I3112
sg15
I799
sg16
I852
sg17
I2190
sg18
I313
sg19
I1628
sg20
I806
sg21
I2437
sg22
I902
sg23
I2780
sg24
I2455
sg25
I2851
sg26
I2040
sg27
I849
sg28
I2618
sg29
I2296
sg30
I1687
sg31
I581
sg32
I1845
sg33
I2235
sg34
I1571
sg35
I1995
sg36
I1406
sg37
I1955
sg38
I2432
sg39
I895
sg40
I886
sg41
I2035
sg42
I3582
sg43
I771
sg44
I1461
sg45
I1910
sg46
I2022
sg47
I993
sg48
I0
sg49
I1400
sg50
I1447
sg51
I2076
sg52
I2161
sg53
I1029
sg54
I561
sg55
I2005
sg56
I3682
sg57
I1624
sg58
I1692
sg59
I534
sg60
I2130
sg61
I3287
sg62
I1516
sg63
I2231
sg64
I2993
sg65
I1570
sg66
I2032
sg67
I2011
sg68
I604
sg69
I2861
sg70
I648
sg71
I1754
sg72
I1031
sg73
I2283
sg74
I2021
sg75
I1958
sg76
I1515
sg77
I2588
sg78
I2462
sg79
I2546
sg80
I1996
sg81
I3218
sg82
I2096
sg83
I711
sg84
I1385
sg85
I2659
sg86
I863
sg87
I1502
sg88
I1603
sg89
I2718
sg90
I1631
sg91
I810
sg92
I2357
sg93
I2339
sg94
I1296
sg95
I2335
sg96
I3477
sg97
I2408
sg98
I1826
sg99
I1580
sg100
I1636
sg101
I1191
sg102
I3609
ssg49
(dp148
g2
I1146
sg4
I705
sg5
I2459
sg6
I704
sg7
I1271
sg8
I1338
sg9
I2392
sg10
I1948
sg11
I2263
sg12
I1993
sg13
I2849
sg14
I3078
sg15
I947
sg16
I907
sg17
I2023
sg18
I1341
sg19
I1633
sg20
I803
sg21
I2401
sg22
I948
sg23
I2688
sg24
I2291
sg25
I2823
sg26
I1854
sg27
I844
sg28
I2496
sg29
I2198
sg30
I1876
sg31
I734
sg32
I1957
sg33
I2475
sg34
I1588
sg35
I1775
sg36
I1252
sg37
I2045
sg38
I2625
sg39
I1110
sg40
I861
sg41
I1936
sg42
I3738
sg43
I787
sg44
I873
sg45
I1672
sg46
I1774
sg47
I944
sg48
I1400
sg49
I0
sg50
I1165
sg51
I1963
sg52
I1971
sg53
I1221
sg54
I719
sg55
I1876
sg56
I3853
sg57
I1484
sg58
I1759
sg59
I584
sg60
I1945
sg61
I3229
sg62
I1437
sg63
I2113
sg64
I2875
sg65
I1551
sg66
I1789
sg67
I2270
sg68
I761
sg69
I2764
sg70
I764
sg71
I1860
sg72
I1046
sg73
I2507
sg74
I1738
sg75
I1684
sg76
I1732
sg77
I2487
sg78
I2381
sg79
I2424
sg80
I1780
sg81
I3131
sg82
I1910
sg83
I722
sg84
I1362
sg85
I2482
sg86
I1077
sg87
I1561
sg88
I1383
sg89
I2443
sg90
I1599
sg91
I785
sg92
I2195
sg93
I2208
sg94
I1259
sg95
I2215
sg96
I3678
sg97
I2239
sg98
I1669
sg99
I1671
sg100
I1353
sg101
I1284
sg102
I3779
ssg50
(dp149
g2
I1160
sg4
I698
sg5
I2532
sg6
I596
sg7
I629
sg8
I707
sg9
I2371
sg10
I1873
sg11
I2170
sg12
I1947
sg13
I2767
sg14
I3023
sg15
I829
sg16
I905
sg17
I2092
sg18
I1362
sg19
I1576
sg20
I834
sg21
I2286
sg22
I954
sg23
I2552
sg24
I2226
sg25
I2713
sg26
I1820
sg27
I849
sg28
I2414
sg29
I2176
sg30
I1628
sg31
I622
sg32
I1747
sg33
I2202
sg34
I1606
sg35
I1769
sg36
I1255
sg37
I1933
sg38
I2461
sg39
I854
sg40
I879
sg41
I1949
sg42
I3539
sg43
I803
sg44
I1233
sg45
I1687
sg46
I1809
sg47
I959
sg48
I1447
sg49
I1165
sg50
I0
sg51
I1915
sg52
I1901
sg53
I1064
sg54
I603
sg55
I1796
sg56
I3689
sg57
I1481
sg58
I1732
sg59
I581
sg60
I1871
sg61
I3128
sg62
I1458
sg63
I1706
sg64
I2832
sg65
I1567
sg66
I1782
sg67
I1941
sg68
I644
sg69
I2685
sg70
I658
sg71
I1805
sg72
I1021
sg73
I2329
sg74
I1797
sg75
I1747
sg76
I1476
sg77
I2473
sg78
I2316
sg79
I2349
sg80
I1775
sg81
I3201
sg82
I1919
sg83
I735
sg84
I1351
sg85
I2545
sg86
I888
sg87
I1536
sg88
I752
sg89
I2533
sg90
I1616
sg91
I804
sg92
I2217
sg93
I2138
sg94
I1305
sg95
I2164
sg96
I3460
sg97
I2181
sg98
I1742
sg99
I1626
sg100
I1006
sg101
I1336
sg102
I3615
ssg51
(dp150
g2
I1154
sg4
I673
sg5
I2504
sg6
I686
sg7
I2098
sg8
I2075
sg9
I756
sg10
I1897
sg11
I2276
sg12
I2365
sg13
I2903
sg14
I3319
sg15
I930
sg16
I882
sg17
I2580
sg18
I2101
sg19
I1642
sg20
I781
sg21
I2825
sg22
I909
sg23
I3169
sg24
I2334
sg25
I2768
sg26
I271
sg27
I882
sg28
I2526
sg29
I2505
sg30
I1874
sg31
I719
sg32
I1982
sg33
I2455
sg34
I2228
sg35
I515
sg36
I1850
sg37
I2136
sg38
I2692
sg39
I1043
sg40
I885
sg41
I2048
sg42
I3766
sg43
I767
sg44
I2061
sg45
I2433
sg46
I153
sg47
I965
sg48
I2076
sg49
I1963
sg50
I1915
sg51
I0
sg52
I991
sg53
I1243
sg54
I706
sg55
I2456
sg56
I3821
sg57
I2196
sg58
I2384
sg59
I551
sg60
I914
sg61
I3335
sg62
I2260
sg63
I2820
sg64
I3118
sg65
I2193
sg66
I561
sg67
I2224
sg68
I750
sg69
I2799
sg70
I695
sg71
I1919
sg72
I1022
sg73
I2568
sg74
I547
sg75
I609
sg76
I1717
sg77
I2289
sg78
I2630
sg79
I2407
sg80
I546
sg81
I3312
sg82
I2327
sg83
I759
sg84
I1338
sg85
I2530
sg86
I1052
sg87
I2268
sg88
I2144
sg89
I2582
sg90
I1695
sg91
I799
sg92
I2456
sg93
I2268
sg94
I2118
sg95
I2281
sg96
I3767
sg97
I1956
sg98
I2298
sg99
I1728
sg100
I2214
sg101
I2040
sg102
I3883
ssg52
(dp151
g2
I1181
sg4
I696
sg5
I2497
sg6
I705
sg7
I2086
sg8
I2149
sg9
I1456
sg10
I1948
sg11
I2369
sg12
I2388
sg13
I2910
sg14
I3327
sg15
I955
sg16
I918
sg17
I2651
sg18
I2118
sg19
I1614
sg20
I824
sg21
I2931
sg22
I941
sg23
I3176
sg24
I2320
sg25
I2840
sg26
I904
sg27
I849
sg28
I2565
sg29
I2581
sg30
I1857
sg31
I739
sg32
I1981
sg33
I2466
sg34
I2289
sg35
I822
sg36
I1905
sg37
I2117
sg38
I2639
sg39
I1112
sg40
I855
sg41
I2025
sg42
I3751
sg43
I796
sg44
I2083
sg45
I2450
sg46
I845
sg47
I950
sg48
I2161
sg49
I1971
sg50
I1901
sg51
I991
sg52
I0
sg53
I1248
sg54
I725
sg55
I2474
sg56
I3907
sg57
I2256
sg58
I2453
sg59
I576
sg60
I466
sg61
I3263
sg62
I2231
sg63
I2813
sg64
I3106
sg65
I2250
sg66
I795
sg67
I2243
sg68
I769
sg69
I2746
sg70
I708
sg71
I1973
sg72
I1062
sg73
I2621
sg74
I855
sg75
I828
sg76
I1740
sg77
I2420
sg78
I2672
sg79
I2499
sg80
I843
sg81
I3252
sg82
I2294
sg83
I744
sg84
I1329
sg85
I2545
sg86
I1072
sg87
I2323
sg88
I2152
sg89
I2511
sg90
I1625
sg91
I792
sg92
I2552
sg93
I2318
sg94
I2115
sg95
I2258
sg96
I3662
sg97
I1988
sg98
I2376
sg99
I1780
sg100
I2219
sg101
I2166
sg102
I3881
ssg53
(dp152
g2
I167
sg4
I550
sg5
I920
sg6
I620
sg7
I1242
sg8
I1244
sg9
I1260
sg10
I754
sg11
I1339
sg12
I1230
sg13
I1281
sg14
I1174
sg15
I629
sg16
I614
sg17
I943
sg18
I1137
sg19
I534
sg20
I501
sg21
I1223
sg22
I626
sg23
I1402
sg24
I1250
sg25
I1327
sg26
I1248
sg27
I512
sg28
I1368
sg29
I1263
sg30
I754
sg31
I644
sg32
I1079
sg33
I825
sg34
I1067
sg35
I1253
sg36
I1175
sg37
I507
sg38
I754
sg39
I918
sg40
I567
sg41
I999
sg42
I1096
sg43
I498
sg44
I1266
sg45
I1238
sg46
I1028
sg47
I563
sg48
I1029
sg49
I1221
sg50
I1064
sg51
I1243
sg52
I1248
sg53
I0
sg54
I624
sg55
I1311
sg56
I1243
sg57
I1230
sg58
I1284
sg59
I544
sg60
I1236
sg61
I1441
sg62
I1226
sg63
I1107
sg64
I1222
sg65
I918
sg66
I1249
sg67
I637
sg68
I642
sg69
I1261
sg70
I715
sg71
I366
sg72
I619
sg73
I656
sg74
I1256
sg75
I1240
sg76
I927
sg77
I1018
sg78
I1297
sg79
I1316
sg80
I1259
sg81
I569
sg82
I1288
sg83
I620
sg84
I482
sg85
I958
sg86
I718
sg87
I1237
sg88
I1247
sg89
I942
sg90
I583
sg91
I604
sg92
I1184
sg93
I1313
sg94
I1236
sg95
I1259
sg96
I962
sg97
I1282
sg98
I731
sg99
I359
sg100
I1275
sg101
I1180
sg102
I845
ssg54
(dp153
g2
I464
sg4
I515
sg5
I521
sg6
I46
sg7
I723
sg8
I703
sg9
I709
sg10
I884
sg11
I782
sg12
I669
sg13
I720
sg14
I698
sg15
I70
sg16
I418
sg17
I557
sg18
I614
sg19
I443
sg20
I465
sg21
I698
sg22
I599
sg23
I775
sg24
I721
sg25
I768
sg26
I721
sg27
I638
sg28
I795
sg29
I712
sg30
I675
sg31
I22
sg32
I695
sg33
I742
sg34
I567
sg35
I720
sg36
I658
sg37
I528
sg38
I714
sg39
I289
sg40
I483
sg41
I869
sg42
I794
sg43
I326
sg44
I746
sg45
I715
sg46
I547
sg47
I451
sg48
I561
sg49
I719
sg50
I603
sg51
I706
sg52
I725
sg53
I624
sg54
I0
sg55
I750
sg56
I781
sg57
I683
sg58
I741
sg59
I381
sg60
I711
sg61
I777
sg62
I705
sg63
I752
sg64
I635
sg65
I517
sg66
I714
sg67
I769
sg68
I22
sg69
I736
sg70
I533
sg71
I505
sg72
I307
sg73
I715
sg74
I717
sg75
I716
sg76
I875
sg77
I543
sg78
I710
sg79
I784
sg80
I730
sg81
I563
sg82
I726
sg83
I477
sg84
I530
sg85
I595
sg86
I367
sg87
I726
sg88
I721
sg89
I608
sg90
I467
sg91
I617
sg92
I607
sg93
I775
sg94
I721
sg95
I728
sg96
I773
sg97
I748
sg98
I415
sg99
I518
sg100
I776
sg101
I699
sg102
I810
ssg55
(dp154
g2
I1208
sg4
I722
sg5
I2805
sg6
I729
sg7
I1958
sg8
I2027
sg9
I2873
sg10
I1969
sg11
I2661
sg12
I2487
sg13
I3240
sg14
I3475
sg15
I1003
sg16
I943
sg17
I2506
sg18
I1957
sg19
I1701
sg20
I841
sg21
I2377
sg22
I973
sg23
I2715
sg24
I2714
sg25
I3151
sg26
I2368
sg27
I873
sg28
I2894
sg29
I2719
sg30
I1881
sg31
I764
sg32
I2054
sg33
I2545
sg34
I2165
sg35
I2344
sg36
I1836
sg37
I2103
sg38
I2672
sg39
I1146
sg40
I893
sg41
I2090
sg42
I3880
sg43
I787
sg44
I1956
sg45
I2285
sg46
I2256
sg47
I970
sg48
I2005
sg49
I1876
sg50
I1796
sg51
I2456
sg52
I2474
sg53
I1311
sg54
I750
sg55
I0
sg56
I4037
sg57
I2136
sg58
I2330
sg59
I582
sg60
I2416
sg61
I3624
sg62
I2117
sg63
I2664
sg64
I3234
sg65
I2117
sg66
I2354
sg67
I2306
sg68
I796
sg69
I3142
sg70
I750
sg71
I1960
sg72
I1072
sg73
I2607
sg74
I2376
sg75
I2290
sg76
I1777
sg77
I2904
sg78
I2807
sg79
I2818
sg80
I2349
sg81
I3245
sg82
I2461
sg83
I765
sg84
I1367
sg85
I2846
sg86
I1081
sg87
I2179
sg88
I2067
sg89
I2858
sg90
I1654
sg91
I796
sg92
I2679
sg93
I2635
sg94
I2006
sg95
I2647
sg96
I3735
sg97
I2690
sg98
I2187
sg99
I1762
sg100
I2088
sg101
I2034
sg102
I3914
ssg56
(dp155
g2
I1135
sg4
I623
sg5
I3794
sg6
I767
sg7
I3899
sg8
I3894
sg9
I4071
sg10
I2149
sg11
I4055
sg12
I4027
sg13
I4349
sg14
I4283
sg15
I1126
sg16
I889
sg17
I3773
sg18
I3757
sg19
I1881
sg20
I908
sg21
I4108
sg22
I1029
sg23
I4339
sg24
I4127
sg25
I4300
sg26
I3857
sg27
I760
sg28
I4146
sg29
I4137
sg30
I2154
sg31
I775
sg32
I1154
sg33
I2632
sg34
I3865
sg35
I3868
sg36
I3623
sg37
I2062
sg38
I2203
sg39
I1165
sg40
I713
sg41
I2328
sg42
I1779
sg43
I879
sg44
I3939
sg45
I4088
sg46
I3674
sg47
I1062
sg48
I3682
sg49
I3853
sg50
I3689
sg51
I3821
sg52
I3907
sg53
I1243
sg54
I781
sg55
I4037
sg56
I0
sg57
I3895
sg58
I4134
sg59
I589
sg60
I3864
sg61
I4699
sg62
I3897
sg63
I3919
sg64
I4372
sg65
I3734
sg66
I3873
sg67
I2458
sg68
I810
sg69
I4375
sg70
I845
sg71
I2007
sg72
I1074
sg73
I2712
sg74
I3874
sg75
I3676
sg76
I1797
sg77
I4016
sg78
I4097
sg79
I4205
sg80
I3876
sg81
I3138
sg82
I4077
sg83
I873
sg84
I1534
sg85
I3790
sg86
I1105
sg87
I4012
sg88
I3942
sg89
I3836
sg90
I1389
sg91
I831
sg92
I4080
sg93
I4104
sg94
I3958
sg95
I4118
sg96
I3729
sg97
I4145
sg98
I3485
sg99
I1805
sg100
I3916
sg101
I3850
sg102
I3922
ssg57
(dp156
g2
I1161
sg4
I709
sg5
I2618
sg6
I665
sg7
I1656
sg8
I1648
sg9
I2555
sg10
I1917
sg11
I2529
sg12
I2270
sg13
I3014
sg14
I3256
sg15
I930
sg16
I894
sg17
I1901
sg18
I1669
sg19
I1674
sg20
I779
sg21
I2515
sg22
I936
sg23
I2849
sg24
I2566
sg25
I2996
sg26
I2140
sg27
I866
sg28
I2766
sg29
I2399
sg30
I1883
sg31
I698
sg32
I2026
sg33
I2476
sg34
I1838
sg35
I2099
sg36
I249
sg37
I2057
sg38
I2643
sg39
I1081
sg40
I877
sg41
I2032
sg42
I3716
sg43
I759
sg44
I1600
sg45
I1679
sg46
I2055
sg47
I964
sg48
I1624
sg49
I1484
sg50
I1481
sg51
I2196
sg52
I2256
sg53
I1230
sg54
I683
sg55
I2136
sg56
I3895
sg57
I0
sg58
I2011
sg59
I574
sg60
I2249
sg61
I3476
sg62
I1812
sg63
I2405
sg64
I3045
sg65
I1838
sg66
I2130
sg67
I2249
sg68
I728
sg69
I3002
sg70
I720
sg71
I1888
sg72
I1027
sg73
I2548
sg74
I2125
sg75
I2054
sg76
I1748
sg77
I2626
sg78
I2578
sg79
I2695
sg80
I2105
sg81
I3212
sg82
I2256
sg83
I737
sg84
I1375
sg85
I2675
sg86
I1067
sg87
I1846
sg88
I1718
sg89
I2715
sg90
I1634
sg91
I802
sg92
I2435
sg93
I2469
sg94
I1689
sg95
I2451
sg96
I3709
sg97
I2520
sg98
I1544
sg99
I1705
sg100
I1754
sg101
I1603
sg102
I3843
ssg58
(dp157
g2
I1206
sg4
I708
sg5
I2646
sg6
I732
sg7
I1850
sg8
I1865
sg9
I2793
sg10
I1903
sg11
I2686
sg12
I2449
sg13
I3145
sg14
I3384
sg15
I963
sg16
I938
sg17
I2424
sg18
I1684
sg19
I1751
sg20
I900
sg21
I2749
sg22
I978
sg23
I3028
sg24
I2723
sg25
I3098
sg26
I2354
sg27
I864
sg28
I2863
sg29
I2595
sg30
I1960
sg31
I764
sg32
I2100
sg33
I2516
sg34
I377
sg35
I2316
sg36
I1818
sg37
I2044
sg38
I2577
sg39
I1093
sg40
I865
sg41
I2125
sg42
I3825
sg43
I887
sg44
I1823
sg45
I2227
sg46
I2280
sg47
I1061
sg48
I1692
sg49
I1759
sg50
I1732
sg51
I2384
sg52
I2453
sg53
I1284
sg54
I741
sg55
I2330
sg56
I4134
sg57
I2011
sg58
I0
sg59
I631
sg60
I2429
sg61
I3560
sg62
I1706
sg63
I2566
sg64
I3221
sg65
I306
sg66
I2333
sg67
I2346
sg68
I786
sg69
I3111
sg70
I804
sg71
I1881
sg72
I1044
sg73
I2613
sg74
I2340
sg75
I2282
sg76
I1774
sg77
I2730
sg78
I2745
sg79
I2834
sg80
I2309
sg81
I3173
sg82
I2426
sg83
I810
sg84
I1482
sg85
I2759
sg86
I1076
sg87
I559
sg88
I1922
sg89
I2886
sg90
I1646
sg91
I931
sg92
I2614
sg93
I2633
sg94
I1379
sg95
I2650
sg96
I3660
sg97
I2703
sg98
I2027
sg99
I1785
sg100
I1984
sg101
I1359
sg102
I3924
ssg59
(dp158
g2
I423
sg4
I531
sg5
I513
sg6
I383
sg7
I575
sg8
I565
sg9
I566
sg10
I712
sg11
I598
sg12
I581
sg13
I563
sg14
I557
sg15
I419
sg16
I263
sg17
I562
sg18
I571
sg19
I459
sg20
I467
sg21
I511
sg22
I489
sg23
I570
sg24
I540
sg25
I582
sg26
I581
sg27
I591
sg28
I611
sg29
I556
sg30
I573
sg31
I385
sg32
I522
sg33
I647
sg34
I541
sg35
I572
sg36
I540
sg37
I447
sg38
I583
sg39
I369
sg40
I499
sg41
I806
sg42
I600
sg43
I404
sg44
I587
sg45
I561
sg46
I500
sg47
I446
sg48
I534
sg49
I584
sg50
I581
sg51
I551
sg52
I576
sg53
I544
sg54
I381
sg55
I582
sg56
I589
sg57
I574
sg58
I631
sg59
I0
sg60
I572
sg61
I597
sg62
I583
sg63
I590
sg64
I572
sg65
I486
sg66
I573
sg67
I592
sg68
I385
sg69
I582
sg70
I537
sg71
I337
sg72
I387
sg73
I484
sg74
I572
sg75
I576
sg76
I750
sg77
I412
sg78
I563
sg79
I600
sg80
I580
sg81
I473
sg82
I577
sg83
I441
sg84
I469
sg85
I558
sg86
I378
sg87
I573
sg88
I577
sg89
I578
sg90
I518
sg91
I543
sg92
I507
sg93
I585
sg94
I570
sg95
I593
sg96
I647
sg97
I572
sg98
I338
sg99
I419
sg100
I633
sg101
I549
sg102
I618
ssg60
(dp159
g2
I1168
sg4
I688
sg5
I2480
sg6
I693
sg7
I2066
sg8
I2128
sg9
I1458
sg10
I1903
sg11
I2287
sg12
I2323
sg13
I2879
sg14
I3318
sg15
I938
sg16
I902
sg17
I2604
sg18
I2090
sg19
I1612
sg20
I823
sg21
I2935
sg22
I945
sg23
I3134
sg24
I2291
sg25
I2785
sg26
I877
sg27
I857
sg28
I2490
sg29
I2583
sg30
I1851
sg31
I726
sg32
I1945
sg33
I2485
sg34
I2261
sg35
I797
sg36
I1845
sg37
I2114
sg38
I2622
sg39
I1069
sg40
I884
sg41
I2019
sg42
I3749
sg43
I808
sg44
I2054
sg45
I2391
sg46
I795
sg47
I955
sg48
I2130
sg49
I1945
sg50
I1871
sg51
I914
sg52
I466
sg53
I1236
sg54
I711
sg55
I2416
sg56
I3864
sg57
I2249
sg58
I2429
sg59
I572
sg60
I0
sg61
I3232
sg62
I2217
sg63
I2802
sg64
I3104
sg65
I2214
sg66
I777
sg67
I2210
sg68
I756
sg69
I2739
sg70
I720
sg71
I1947
sg72
I1048
sg73
I2558
sg74
I831
sg75
I805
sg76
I1720
sg77
I2406
sg78
I2660
sg79
I2415
sg80
I825
sg81
I3246
sg82
I2280
sg83
I737
sg84
I1329
sg85
I2527
sg86
I1066
sg87
I2293
sg88
I2130
sg89
I2497
sg90
I1637
sg91
I790
sg92
I2522
sg93
I2256
sg94
I2101
sg95
I2238
sg96
I3639
sg97
I1949
sg98
I2325
sg99
I1749
sg100
I2201
sg101
I2150
sg102
I3877
ssg61
(dp160
g2
I1255
sg4
I733
sg5
I2647
sg6
I758
sg7
I3348
sg8
I3419
sg9
I3667
sg10
I2124
sg11
I3209
sg12
I3559
sg13
I2995
sg14
I4133
sg15
I1005
sg16
I973
sg17
I3484
sg18
I3299
sg19
I1800
sg20
I843
sg21
I3966
sg22
I996
sg23
I4168
sg24
I3262
sg25
I3036
sg26
I3236
sg27
I893
sg28
I3394
sg29
I3695
sg30
I2142
sg31
I800
sg32
I2356
sg33
I2840
sg34
I3351
sg35
I3180
sg36
I3018
sg37
I2272
sg38
I2792
sg39
I1230
sg40
I882
sg41
I2272
sg42
I4349
sg43
I893
sg44
I3328
sg45
I3581
sg46
I3074
sg47
I1054
sg48
I3287
sg49
I3229
sg50
I3128
sg51
I3335
sg52
I3263
sg53
I1441
sg54
I777
sg55
I3624
sg56
I4699
sg57
I3476
sg58
I3560
sg59
I597
sg60
I3232
sg61
I0
sg62
I3420
sg63
I3676
sg64
I4148
sg65
I3259
sg66
I3200
sg67
I2587
sg68
I830
sg69
I2974
sg70
I860
sg71
I2051
sg72
I1137
sg73
I2753
sg74
I3202
sg75
I3066
sg76
I1888
sg77
I3659
sg78
I3815
sg79
I3362
sg80
I3173
sg81
I3432
sg82
I3527
sg83
I798
sg84
I1388
sg85
I2680
sg86
I1155
sg87
I3453
sg88
I3386
sg89
I3303
sg90
I1753
sg91
I836
sg92
I3715
sg93
I3192
sg94
I3399
sg95
I3132
sg96
I4084
sg97
I3480
sg98
I3254
sg99
I1839
sg100
I3446
sg101
I3403
sg102
I4191
ssg62
(dp161
g2
I1159
sg4
I735
sg5
I2666
sg6
I690
sg7
I1597
sg8
I1666
sg9
I2662
sg10
I1966
sg11
I2480
sg12
I2281
sg13
I3054
sg14
I3262
sg15
I956
sg16
I919
sg17
I2278
sg18
I1446
sg19
I1620
sg20
I817
sg21
I2632
sg22
I944
sg23
I2849
sg24
I2503
sg25
I3024
sg26
I2138
sg27
I848
sg28
I2697
sg29
I2441
sg30
I1839
sg31
I719
sg32
I1958
sg33
I2463
sg34
I1561
sg35
I2084
sg36
I1532
sg37
I2017
sg38
I2629
sg39
I1092
sg40
I864
sg41
I1978
sg42
I3776
sg43
I788
sg44
I1545
sg45
I1942
sg46
I2046
sg47
I978
sg48
I1516
sg49
I1437
sg50
I1458
sg51
I2260
sg52
I2231
sg53
I1226
sg54
I705
sg55
I2117
sg56
I3897
sg57
I1812
sg58
I1706
sg59
I583
sg60
I2217
sg61
I3420
sg62
I0
sg63
I2339
sg64
I3073
sg65
I1543
sg66
I2102
sg67
I2252
sg68
I753
sg69
I2949
sg70
I763
sg71
I1899
sg72
I1061
sg73
I2548
sg74
I2102
sg75
I2018
sg76
I1713
sg77
I2718
sg78
I2610
sg79
I2646
sg80
I2085
sg81
I3158
sg82
I2235
sg83
I736
sg84
I1354
sg85
I2693
sg86
I1065
sg87
I1553
sg88
I1677
sg89
I2663
sg90
I1603
sg91
I789
sg92
I2450
sg93
I2444
sg94
I1335
sg95
I2421
sg96
I3682
sg97
I2486
sg98
I1900
sg99
I1716
sg100
I1717
sg101
I1348
sg102
I3798
ssg63
(dp162
g2
I1153
sg4
I740
sg5
I3118
sg6
I743
sg7
I1901
sg8
I1924
sg9
I3135
sg10
I1954
sg11
I2926
sg12
I2717
sg13
I3361
sg14
I3538
sg15
I979
sg16
I923
sg17
I2599
sg18
I2244
sg19
I1528
sg20
I807
sg21
I2928
sg22
I955
sg23
I3293
sg24
I2939
sg25
I3428
sg26
I2691
sg27
I858
sg28
I3219
sg29
I2939
sg30
I1762
sg31
I767
sg32
I1880
sg33
I2348
sg34
I2354
sg35
I2646
sg36
I2035
sg37
I2014
sg38
I2618
sg39
I936
sg40
I863
sg41
I2107
sg42
I3894
sg43
I793
sg44
I2171
sg45
I2399
sg46
I2557
sg47
I1006
sg48
I2231
sg49
I2113
sg50
I1706
sg51
I2820
sg52
I2813
sg53
I1107
sg54
I752
sg55
I2664
sg56
I3919
sg57
I2405
sg58
I2566
sg59
I590
sg60
I2802
sg61
I3676
sg62
I2339
sg63
I0
sg64
I3374
sg65
I2295
sg66
I2686
sg67
I2139
sg68
I797
sg69
I3339
sg70
I587
sg71
I1977
sg72
I1092
sg73
I2428
sg74
I2653
sg75
I2579
sg76
I1510
sg77
I3057
sg78
I3078
sg79
I3157
sg80
I2667
sg81
I3211
sg82
I2732
sg83
I735
sg84
I1320
sg85
I3178
sg86
I1050
sg87
I2448
sg88
I1940
sg89
I3180
sg90
I1685
sg91
I839
sg92
I2919
sg93
I2995
sg94
I2300
sg95
I2952
sg96
I3554
sg97
I2953
sg98
I2352
sg99
I1805
sg100
I2062
sg101
I2287
sg102
I3758
ssg64
(dp163
g2
I1216
sg4
I700
sg5
I3476
sg6
I625
sg7
I2970
sg8
I2971
sg9
I3467
sg10
I1941
sg11
I3400
sg12
I2459
sg13
I3748
sg14
I3298
sg15
I913
sg16
I902
sg17
I3332
sg18
I3006
sg19
I1792
sg20
I831
sg21
I3493
sg22
I967
sg23
I3741
sg24
I3393
sg25
I3777
sg26
I3081
sg27
I880
sg28
I3583
sg29
I2979
sg30
I1901
sg31
I645
sg32
I2104
sg33
I2488
sg34
I3115
sg35
I3042
sg36
I2625
sg37
I2168
sg38
I2497
sg39
I1012
sg40
I901
sg41
I2224
sg42
I3944
sg43
I812
sg44
I2969
sg45
I3207
sg46
I3028
sg47
I1027
sg48
I2993
sg49
I2875
sg50
I2832
sg51
I3118
sg52
I3106
sg53
I1222
sg54
I635
sg55
I3234
sg56
I4372
sg57
I3045
sg58
I3221
sg59
I572
sg60
I3104
sg61
I4148
sg62
I3073
sg63
I3374
sg64
I0
sg65
I3083
sg66
I3057
sg67
I2287
sg68
I677
sg69
I3737
sg70
I717
sg71
I2001
sg72
I1049
sg73
I2636
sg74
I3069
sg75
I2978
sg76
I1721
sg77
I3564
sg78
I2399
sg79
I3541
sg80
I3036
sg81
I3276
sg82
I2468
sg83
I790
sg84
I1472
sg85
I3457
sg86
I1002
sg87
I3114
sg88
I3006
sg89
I3556
sg90
I1702
sg91
I856
sg92
I2633
sg93
I3381
sg94
I3013
sg95
I3408
sg96
I3797
sg97
I3369
sg98
I3015
sg99
I1720
sg100
I3117
sg101
I2985
sg102
I3852
ssg65
(dp164
g2
I1135
sg4
I639
sg5
I2645
sg6
I514
sg7
I1654
sg8
I1686
sg9
I2598
sg10
I1600
sg11
I2448
sg12
I2249
sg13
I2980
sg14
I3143
sg15
I739
sg16
I805
sg17
I2279
sg18
I1489
sg19
I1626
sg20
I754
sg21
I2522
sg22
I864
sg23
I2786
sg24
I2488
sg25
I2898
sg26
I2137
sg27
I788
sg28
I2655
sg29
I2401
sg30
I1652
sg31
I540
sg32
I1692
sg33
I2051
sg34
I257
sg35
I2105
sg36
I1556
sg37
I1944
sg38
I2220
sg39
I833
sg40
I812
sg41
I1930
sg42
I3542
sg43
I763
sg44
I1600
sg45
I1987
sg46
I2120
sg47
I896
sg48
I1570
sg49
I1551
sg50
I1567
sg51
I2193
sg52
I2250
sg53
I918
sg54
I517
sg55
I2117
sg56
I3734
sg57
I1838
sg58
I306
sg59
I486
sg60
I2214
sg61
I3259
sg62
I1543
sg63
I2295
sg64
I3083
sg65
I0
sg66
I2124
sg67
I1972
sg68
I562
sg69
I2874
sg70
I631
sg71
I1765
sg72
I959
sg73
I2327
sg74
I2130
sg75
I2082
sg76
I1492
sg77
I2710
sg78
I2532
sg79
I2590
sg80
I2102
sg81
I3093
sg82
I2198
sg83
I660
sg84
I1301
sg85
I2678
sg86
I802
sg87
I407
sg88
I1708
sg89
I2737
sg90
I1573
sg91
I764
sg92
I2386
sg93
I2399
sg94
I1173
sg95
I2442
sg96
I3356
sg97
I2481
sg98
I1954
sg99
I1608
sg100
I1780
sg101
I1183
sg102
I3481
ssg66
(dp165
g2
I1183
sg4
I694
sg5
I2452
sg6
I694
sg7
I1939
sg8
I2003
sg9
I1094
sg10
I1934
sg11
I2225
sg12
I2289
sg13
I2833
sg14
I3266
sg15
I940
sg16
I911
sg17
I2490
sg18
I1988
sg19
I1615
sg20
I802
sg21
I2829
sg22
I930
sg23
I3076
sg24
I2185
sg25
I2783
sg26
I493
sg27
I872
sg28
I2464
sg29
I2457
sg30
I1850
sg31
I727
sg32
I1981
sg33
I2451
sg34
I2175
sg35
I228
sg36
I1812
sg37
I2119
sg38
I2643
sg39
I1103
sg40
I873
sg41
I2028
sg42
I3751
sg43
I787
sg44
I1925
sg45
I2291
sg46
I450
sg47
I932
sg48
I2032
sg49
I1789
sg50
I1782
sg51
I561
sg52
I795
sg53
I1249
sg54
I714
sg55
I2354
sg56
I3873
sg57
I2130
sg58
I2333
sg59
I573
sg60
I777
sg61
I3200
sg62
I2102
sg63
I2686
sg64
I3057
sg65
I2124
sg66
I0
sg67
I2223
sg68
I758
sg69
I2675
sg70
I721
sg71
I1975
sg72
I1052
sg73
I2629
sg74
I266
sg75
I295
sg76
I1752
sg77
I2301
sg78
I2554
sg79
I2385
sg80
I258
sg81
I3259
sg82
I2176
sg83
I725
sg84
I1319
sg85
I2501
sg86
I1072
sg87
I2190
sg88
I1999
sg89
I2459
sg90
I1632
sg91
I779
sg92
I2441
sg93
I2210
sg94
I1979
sg95
I2137
sg96
I3675
sg97
I1809
sg98
I2242
sg99
I1779
sg100
I2083
sg101
I2009
sg102
I3893
ssg67
(dp166
g2
I412
sg4
I715
sg5
I1751
sg6
I760
sg7
I2262
sg8
I2254
sg9
I2222
sg10
I1027
sg11
I2360
sg12
I2165
sg13
I2310
sg14
I2114
sg15
I797
sg16
I776
sg17
I1801
sg18
I2191
sg19
I737
sg20
I656
sg21
I2222
sg22
I869
sg23
I2431
sg24
I2276
sg25
I2316
sg26
I2240
sg27
I578
sg28
I2412
sg29
I2276
sg30
I1186
sg31
I785
sg32
I1252
sg33
I1113
sg34
I1985
sg35
I2231
sg36
I2166
sg37
I868
sg38
I881
sg39
I1171
sg40
I593
sg41
I1215
sg42
I2098
sg43
I758
sg44
I2287
sg45
I2304
sg46
I1876
sg47
I809
sg48
I2011
sg49
I2270
sg50
I1941
sg51
I2224
sg52
I2243
sg53
I637
sg54
I769
sg55
I2306
sg56
I2458
sg57
I2249
sg58
I2346
sg59
I592
sg60
I2210
sg61
I2587
sg62
I2252
sg63
I2139
sg64
I2287
sg65
I1972
sg66
I2223
sg67
I0
sg68
I818
sg69
I2336
sg70
I870
sg71
I470
sg72
I971
sg73
I931
sg74
I2234
sg75
I2112
sg76
I1131
sg77
I2027
sg78
I2340
sg79
I2361
sg80
I2238
sg81
I928
sg82
I2314
sg83
I640
sg84
I582
sg85
I1762
sg86
I897
sg87
I2258
sg88
I2267
sg89
I1779
sg90
I813
sg91
I716
sg92
I2135
sg93
I2339
sg94
I2265
sg95
I2305
sg96
I1692
sg97
I2313
sg98
I1566
sg99
I380
sg100
I2276
sg101
I2214
sg102
I1373
ssg68
(dp167
g2
I504
sg4
I528
sg5
I571
sg6
I34
sg7
I768
sg8
I746
sg9
I752
sg10
I931
sg11
I832
sg12
I711
sg13
I768
sg14
I744
sg15
I79
sg16
I433
sg17
I608
sg18
I660
sg19
I455
sg20
I488
sg21
I744
sg22
I613
sg23
I824
sg24
I769
sg25
I815
sg26
I767
sg27
I686
sg28
I848
sg29
I760
sg30
I680
sg31
I18
sg32
I726
sg33
I784
sg34
I608
sg35
I763
sg36
I682
sg37
I543
sg38
I718
sg39
I302
sg40
I483
sg41
I917
sg42
I832
sg43
I355
sg44
I792
sg45
I759
sg46
I588
sg47
I468
sg48
I604
sg49
I761
sg50
I644
sg51
I750
sg52
I769
sg53
I642
sg54
I22
sg55
I796
sg56
I810
sg57
I728
sg58
I786
sg59
I385
sg60
I756
sg61
I830
sg62
I753
sg63
I797
sg64
I677
sg65
I562
sg66
I758
sg67
I818
sg68
I0
sg69
I783
sg70
I538
sg71
I562
sg72
I339
sg73
I775
sg74
I760
sg75
I760
sg76
I886
sg77
I589
sg78
I754
sg79
I833
sg80
I773
sg81
I602
sg82
I772
sg83
I478
sg84
I573
sg85
I646
sg86
I404
sg87
I770
sg88
I766
sg89
I653
sg90
I479
sg91
I635
sg92
I644
sg93
I834
sg94
I768
sg95
I773
sg96
I826
sg97
I790
sg98
I459
sg99
I544
sg100
I821
sg101
I743
sg102
I852
ssg69
(dp168
g2
I1155
sg4
I726
sg5
I1415
sg6
I717
sg7
I2875
sg8
I2959
sg9
I3148
sg10
I2011
sg11
I2749
sg12
I3105
sg13
I1180
sg14
I3826
sg15
I968
sg16
I939
sg17
I3191
sg18
I2857
sg19
I1690
sg20
I846
sg21
I3474
sg22
I961
sg23
I3684
sg24
I2899
sg25
I1708
sg26
I2680
sg27
I874
sg28
I2986
sg29
I3230
sg30
I1897
sg31
I755
sg32
I2193
sg33
I2547
sg34
I2951
sg35
I2649
sg36
I2580
sg37
I2132
sg38
I2720
sg39
I1145
sg40
I863
sg41
I2213
sg42
I4062
sg43
I816
sg44
I2880
sg45
I3098
sg46
I2558
sg47
I1002
sg48
I2861
sg49
I2764
sg50
I2685
sg51
I2799
sg52
I2746
sg53
I1261
sg54
I736
sg55
I3142
sg56
I4375
sg57
I3002
sg58
I3111
sg59
I582
sg60
I2739
sg61
I2974
sg62
I2949
sg63
I3339
sg64
I3737
sg65
I2874
sg66
I2675
sg67
I2336
sg68
I783
sg69
I0
sg70
I790
sg71
I1975
sg72
I1079
sg73
I2644
sg74
I2667
sg75
I2584
sg76
I1758
sg77
I3220
sg78
I3375
sg79
I2924
sg80
I2654
sg81
I3249
sg82
I3088
sg83
I773
sg84
I1425
sg85
I1491
sg86
I1088
sg87
I3008
sg88
I2912
sg89
I3004
sg90
I1669
sg91
I813
sg92
I3260
sg93
I2744
sg94
I2896
sg95
I2582
sg96
I3727
sg97
I3038
sg98
I2882
sg99
I1772
sg100
I2955
sg101
I2917
sg102
I3945
ssg70
(dp169
g2
I428
sg4
I527
sg5
I464
sg6
I534
sg7
I750
sg8
I739
sg9
I722
sg10
I694
sg11
I757
sg12
I758
sg13
I755
sg14
I635
sg15
I548
sg16
I548
sg17
I536
sg18
I731
sg19
I679
sg20
I521
sg21
I664
sg22
I643
sg23
I756
sg24
I718
sg25
I781
sg26
I734
sg27
I576
sg28
I784
sg29
I731
sg30
I827
sg31
I541
sg32
I797
sg33
I858
sg34
I668
sg35
I719
sg36
I698
sg37
I604
sg38
I590
sg39
I762
sg40
I552
sg41
I855
sg42
I714
sg43
I482
sg44
I777
sg45
I740
sg46
I587
sg47
I489
sg48
I648
sg49
I764
sg50
I658
sg51
I695
sg52
I708
sg53
I715
sg54
I533
sg55
I750
sg56
I845
sg57
I720
sg58
I804
sg59
I537
sg60
I720
sg61
I860
sg62
I763
sg63
I587
sg64
I717
sg65
I631
sg66
I721
sg67
I870
sg68
I538
sg69
I790
sg70
I0
sg71
I365
sg72
I540
sg73
I731
sg74
I740
sg75
I747
sg76
I1061
sg77
I575
sg78
I727
sg79
I752
sg80
I728
sg81
I449
sg82
I741
sg83
I548
sg84
I487
sg85
I542
sg86
I609
sg87
I746
sg88
I754
sg89
I564
sg90
I566
sg91
I567
sg92
I601
sg93
I755
sg94
I737
sg95
I764
sg96
I879
sg97
I754
sg98
I396
sg99
I417
sg100
I752
sg101
I708
sg102
I751
ssg71
(dp170
g2
I578
sg4
I384
sg5
I1787
sg6
I496
sg7
I1920
sg8
I1909
sg9
I1936
sg10
I794
sg11
I1959
sg12
I1880
sg13
I1968
sg14
I1988
sg15
I743
sg16
I465
sg17
I1833
sg18
I1813
sg19
I583
sg20
I492
sg21
I1917
sg22
I514
sg23
I2049
sg24
I1910
sg25
I1915
sg26
I1949
sg27
I587
sg28
I2059
sg29
I1890
sg30
I680
sg31
I532
sg32
I1550
sg33
I500
sg34
I1809
sg35
I1950
sg36
I1544
sg37
I757
sg38
I831
sg39
I484
sg40
I531
sg41
I2107
sg42
I1801
sg43
I425
sg44
I1912
sg45
I1916
sg46
I1824
sg47
I718
sg48
I1754
sg49
I1860
sg50
I1805
sg51
I1919
sg52
I1973
sg53
I366
sg54
I505
sg55
I1960
sg56
I2007
sg57
I1888
sg58
I1881
sg59
I337
sg60
I1947
sg61
I2051
sg62
I1899
sg63
I1977
sg64
I2001
sg65
I1765
sg66
I1975
sg67
I470
sg68
I562
sg69
I1975
sg70
I365
sg71
I0
sg72
I481
sg73
I832
sg74
I1949
sg75
I1775
sg76
I803
sg77
I1908
sg78
I2009
sg79
I2025
sg80
I1956
sg81
I1348
sg82
I1964
sg83
I397
sg84
I639
sg85
I1812
sg86
I655
sg87
I1920
sg88
I1946
sg89
I1837
sg90
I702
sg91
I614
sg92
I1886
sg93
I1950
sg94
I1938
sg95
I1947
sg96
I724
sg97
I1970
sg98
I1754
sg99
I187
sg100
I1961
sg101
I1855
sg102
I1432
ssg72
(dp171
g2
I552
sg4
I700
sg5
I947
sg6
I309
sg7
I1053
sg8
I1036
sg9
I1057
sg10
I1142
sg11
I1115
sg12
I1080
sg13
I1106
sg14
I1076
sg15
I354
sg16
I490
sg17
I1004
sg18
I1068
sg19
I666
sg20
I509
sg21
I1000
sg22
I704
sg23
I1152
sg24
I1026
sg25
I1068
sg26
I1061
sg27
I695
sg28
I1161
sg29
I1036
sg30
I685
sg31
I309
sg32
I745
sg33
I936
sg34
I1004
sg35
I1050
sg36
I820
sg37
I601
sg38
I962
sg39
I331
sg40
I612
sg41
I1052
sg42
I1166
sg43
I168
sg44
I1064
sg45
I1049
sg46
I954
sg47
I589
sg48
I1031
sg49
I1046
sg50
I1021
sg51
I1022
sg52
I1062
sg53
I619
sg54
I307
sg55
I1072
sg56
I1074
sg57
I1027
sg58
I1044
sg59
I387
sg60
I1048
sg61
I1137
sg62
I1061
sg63
I1092
sg64
I1049
sg65
I959
sg66
I1052
sg67
I971
sg68
I339
sg69
I1079
sg70
I540
sg71
I481
sg72
I0
sg73
I663
sg74
I1051
sg75
I980
sg76
I954
sg77
I864
sg78
I1086
sg79
I1098
sg80
I1058
sg81
I823
sg82
I1075
sg83
I479
sg84
I615
sg85
I1026
sg86
I252
sg87
I1076
sg88
I1055
sg89
I1057
sg90
I647
sg91
I670
sg92
I954
sg93
I1089
sg94
I1044
sg95
I1107
sg96
I1013
sg97
I1081
sg98
I776
sg99
I454
sg100
I1103
sg101
I1028
sg102
I1058
ssg73
(dp172
g2
I590
sg4
I473
sg5
I2124
sg6
I712
sg7
I2585
sg8
I2571
sg9
I2608
sg10
I1020
sg11
I2653
sg12
I2569
sg13
I2607
sg14
I2516
sg15
I946
sg16
I640
sg17
I2151
sg18
I2417
sg19
I643
sg20
I560
sg21
I2501
sg22
I730
sg23
I2561
sg24
I2593
sg25
I2571
sg26
I2607
sg27
I689
sg28
I2677
sg29
I2573
sg30
I783
sg31
I736
sg32
I2293
sg33
I859
sg34
I2358
sg35
I2615
sg36
I2287
sg37
I738
sg38
I1019
sg39
I946
sg40
I583
sg41
I2536
sg42
I2545
sg43
I518
sg44
I2585
sg45
I2591
sg46
I2285
sg47
I852
sg48
I2283
sg49
I2507
sg50
I2329
sg51
I2568
sg52
I2621
sg53
I656
sg54
I715
sg55
I2607
sg56
I2712
sg57
I2548
sg58
I2613
sg59
I484
sg60
I2558
sg61
I2753
sg62
I2548
sg63
I2428
sg64
I2636
sg65
I2327
sg66
I2629
sg67
I931
sg68
I775
sg69
I2644
sg70
I731
sg71
I832
sg72
I663
sg73
I0
sg74
I2608
sg75
I2449
sg76
I1043
sg77
I2387
sg78
I2707
sg79
I2680
sg80
I2623
sg81
I1519
sg82
I2639
sg83
I544
sg84
I885
sg85
I2157
sg86
I856
sg87
I2585
sg88
I2615
sg89
I2144
sg90
I612
sg91
I706
sg92
I2502
sg93
I2594
sg94
I2521
sg95
I2622
sg96
I1020
sg97
I2604
sg98
I2042
sg99
I883
sg100
I2639
sg101
I2526
sg102
I1819
ssg74
(dp173
g2
I1179
sg4
I696
sg5
I2408
sg6
I697
sg7
I1956
sg8
I2017
sg9
I1079
sg10
I1934
sg11
I2215
sg12
I2294
sg13
I2827
sg14
I3248
sg15
I937
sg16
I906
sg17
I2485
sg18
I1997
sg19
I1620
sg20
I804
sg21
I2827
sg22
I926
sg23
I3062
sg24
I2203
sg25
I2771
sg26
I474
sg27
I871
sg28
I2484
sg29
I2463
sg30
I1858
sg31
I729
sg32
I2011
sg33
I2457
sg34
I2181
sg35
I103
sg36
I1795
sg37
I2096
sg38
I2625
sg39
I1106
sg40
I874
sg41
I2024
sg42
I3728
sg43
I786
sg44
I1880
sg45
I2248
sg46
I431
sg47
I931
sg48
I2021
sg49
I1738
sg50
I1797
sg51
I547
sg52
I855
sg53
I1256
sg54
I717
sg55
I2376
sg56
I3874
sg57
I2125
sg58
I2340
sg59
I572
sg60
I831
sg61
I3202
sg62
I2102
sg63
I2653
sg64
I3069
sg65
I2130
sg66
I266
sg67
I2234
sg68
I760
sg69
I2667
sg70
I740
sg71
I1949
sg72
I1051
sg73
I2608
sg74
I0
sg75
I259
sg76
I1739
sg77
I2284
sg78
I2565
sg79
I2367
sg80
I113
sg81
I3229
sg82
I2184
sg83
I726
sg84
I1319
sg85
I2461
sg86
I1071
sg87
I2201
sg88
I2002
sg89
I2447
sg90
I1611
sg91
I780
sg92
I2453
sg93
I2220
sg94
I1987
sg95
I2154
sg96
I3658
sg97
I1821
sg98
I2195
sg99
I1751
sg100
I2082
sg101
I1999
sg102
I3878
ssg75
(dp174
g2
I1011
sg4
I691
sg5
I2348
sg6
I696
sg7
I1873
sg8
I1952
sg9
I1121
sg10
I1588
sg11
I2143
sg12
I2224
sg13
I2685
sg14
I3066
sg15
I955
sg16
I781
sg17
I2396
sg18
I1932
sg19
I1525
sg20
I801
sg21
I2740
sg22
I930
sg23
I3003
sg24
I2092
sg25
I2698
sg26
I512
sg27
I869
sg28
I2383
sg29
I2399
sg30
I1860
sg31
I729
sg32
I1972
sg33
I2461
sg34
I2131
sg35
I299
sg36
I1709
sg37
I2101
sg38
I2510
sg39
I1113
sg40
I872
sg41
I1849
sg42
I3544
sg43
I752
sg44
I1822
sg45
I2183
sg46
I458
sg47
I930
sg48
I1958
sg49
I1684
sg50
I1747
sg51
I609
sg52
I828
sg53
I1240
sg54
I716
sg55
I2290
sg56
I3676
sg57
I2054
sg58
I2282
sg59
I576
sg60
I805
sg61
I3066
sg62
I2018
sg63
I2579
sg64
I2978
sg65
I2082
sg66
I295
sg67
I2112
sg68
I760
sg69
I2584
sg70
I747
sg71
I1775
sg72
I980
sg73
I2449
sg74
I259
sg75
I0
sg76
I1641
sg77
I2207
sg78
I2417
sg79
I2280
sg80
I316
sg81
I3011
sg82
I2091
sg83
I728
sg84
I1337
sg85
I2395
sg86
I958
sg87
I2139
sg88
I1944
sg89
I2337
sg90
I1613
sg91
I734
sg92
I2390
sg93
I2149
sg94
I1929
sg95
I2077
sg96
I3599
sg97
I1762
sg98
I2151
sg99
I1577
sg100
I2035
sg101
I1942
sg102
I3663
ssg76
(dp175
g2
I589
sg4
I812
sg5
I1195
sg6
I868
sg7
I1741
sg8
I1721
sg9
I1754
sg10
I942
sg11
I1786
sg12
I1713
sg13
I1775
sg14
I1626
sg15
I884
sg16
I968
sg17
I1284
sg18
I1668
sg19
I838
sg20
I673
sg21
I1670
sg22
I680
sg23
I1863
sg24
I1723
sg25
I1698
sg26
I1761
sg27
I764
sg28
I1841
sg29
I1744
sg30
I965
sg31
I893
sg32
I1208
sg33
I975
sg34
I1511
sg35
I1752
sg36
I1339
sg37
I898
sg38
I1101
sg39
I1220
sg40
I784
sg41
I1396
sg42
I1474
sg43
I691
sg44
I1773
sg45
I1666
sg46
I1416
sg47
I852
sg48
I1515
sg49
I1732
sg50
I1476
sg51
I1717
sg52
I1740
sg53
I927
sg54
I875
sg55
I1777
sg56
I1797
sg57
I1748
sg58
I1774
sg59
I750
sg60
I1720
sg61
I1888
sg62
I1713
sg63
I1510
sg64
I1721
sg65
I1492
sg66
I1752
sg67
I1131
sg68
I886
sg69
I1758
sg70
I1061
sg71
I803
sg72
I954
sg73
I1043
sg74
I1739
sg75
I1641
sg76
I0
sg77
I1442
sg78
I1800
sg79
I1791
sg80
I1759
sg81
I929
sg82
I1792
sg83
I795
sg84
I564
sg85
I1286
sg86
I1048
sg87
I1751
sg88
I1758
sg89
I1282
sg90
I904
sg91
I869
sg92
I1620
sg93
I1747
sg94
I1829
sg95
I1762
sg96
I1175
sg97
I1775
sg98
I1021
sg99
I692
sg100
I1758
sg101
I1730
sg102
I1347
ssg77
(dp176
g2
I1020
sg4
I580
sg5
I2941
sg6
I532
sg7
I2623
sg8
I2610
sg9
I2461
sg10
I1712
sg11
I2778
sg12
I2843
sg13
I3195
sg14
I3449
sg15
I780
sg16
I688
sg17
I2980
sg18
I2668
sg19
I1561
sg20
I665
sg21
I3217
sg22
I753
sg23
I3555
sg24
I2813
sg25
I3231
sg26
I2303
sg27
I710
sg28
I2951
sg29
I2915
sg30
I1741
sg31
I565
sg32
I1996
sg33
I2217
sg34
I2747
sg35
I2257
sg36
I2291
sg37
I1962
sg38
I2480
sg39
I876
sg40
I738
sg41
I2043
sg42
I3707
sg43
I638
sg44
I2597
sg45
I2861
sg46
I2221
sg47
I847
sg48
I2588
sg49
I2487
sg50
I2473
sg51
I2289
sg52
I2420
sg53
I1018
sg54
I543
sg55
I2904
sg56
I4016
sg57
I2626
sg58
I2730
sg59
I412
sg60
I2406
sg61
I3659
sg62
I2718
sg63
I3057
sg64
I3564
sg65
I2710
sg66
I2301
sg67
I2027
sg68
I589
sg69
I3220
sg70
I575
sg71
I1908
sg72
I864
sg73
I2387
sg74
I2284
sg75
I2207
sg76
I1442
sg77
I0
sg78
I3028
sg79
I2939
sg80
I2265
sg81
I3220
sg82
I2839
sg83
I594
sg84
I1371
sg85
I2985
sg86
I892
sg87
I2741
sg88
I2666
sg89
I2995
sg90
I1547
sg91
I700
sg92
I2906
sg93
I2791
sg94
I2663
sg95
I2770
sg96
I3537
sg97
I2680
sg98
I2694
sg99
I1627
sg100
I2655
sg101
I2544
sg102
I3688
ssg78
(dp177
g2
I1239
sg4
I685
sg5
I3055
sg6
I697
sg7
I2515
sg8
I2468
sg9
I3024
sg10
I2039
sg11
I3006
sg12
I1913
sg13
I3388
sg14
I2957
sg15
I960
sg16
I907
sg17
I2900
sg18
I2485
sg19
I1611
sg20
I820
sg21
I3107
sg22
I966
sg23
I3468
sg24
I2956
sg25
I3454
sg26
I2585
sg27
I902
sg28
I3202
sg29
I2505
sg30
I1977
sg31
I724
sg32
I2163
sg33
I2619
sg34
I2579
sg35
I2543
sg36
I2284
sg37
I2012
sg38
I2630
sg39
I1143
sg40
I874
sg41
I2189
sg42
I3890
sg43
I783
sg44
I2461
sg45
I2793
sg46
I2490
sg47
I1038
sg48
I2462
sg49
I2381
sg50
I2316
sg51
I2630
sg52
I2672
sg53
I1297
sg54
I710
sg55
I2807
sg56
I4097
sg57
I2578
sg58
I2745
sg59
I563
sg60
I2660
sg61
I3815
sg62
I2610
sg63
I3078
sg64
I2399
sg65
I2532
sg66
I2554
sg67
I2340
sg68
I754
sg69
I3375
sg70
I727
sg71
I2009
sg72
I1086
sg73
I2707
sg74
I2565
sg75
I2417
sg76
I1800
sg77
I3028
sg78
I0
sg79
I3167
sg80
I2534
sg81
I3363
sg82
I1835
sg83
I794
sg84
I1295
sg85
I3066
sg86
I1083
sg87
I2641
sg88
I2551
sg89
I3084
sg90
I1582
sg91
I855
sg92
I1993
sg93
I2992
sg94
I2522
sg95
I2910
sg96
I3806
sg97
I2901
sg98
I2584
sg99
I1814
sg100
I2630
sg101
I2457
sg102
I4031
ssg79
(dp178
g2
I1227
sg4
I745
sg5
I2625
sg6
I764
sg7
I2578
sg8
I2629
sg9
I2888
sg10
I2016
sg11
I1208
sg12
I2811
sg13
I3060
sg14
I3755
sg15
I1016
sg16
I948
sg17
I2973
sg18
I2516
sg19
I1713
sg20
I847
sg21
I3199
sg22
I969
sg23
I3482
sg24
I2597
sg25
I2909
sg26
I2374
sg27
I873
sg28
I1461
sg29
I3033
sg30
I1925
sg31
I801
sg32
I2141
sg33
I2566
sg34
I2663
sg35
I2348
sg36
I2266
sg37
I2142
sg38
I2727
sg39
I1130
sg40
I892
sg41
I2180
sg42
I4000
sg43
I831
sg44
I2539
sg45
I2875
sg46
I2237
sg47
I1008
sg48
I2546
sg49
I2424
sg50
I2349
sg51
I2407
sg52
I2499
sg53
I1316
sg54
I784
sg55
I2818
sg56
I4205
sg57
I2695
sg58
I2834
sg59
I600
sg60
I2415
sg61
I3362
sg62
I2646
sg63
I3157
sg64
I3541
sg65
I2590
sg66
I2385
sg67
I2361
sg68
I833
sg69
I2924
sg70
I752
sg71
I2025
sg72
I1098
sg73
I2680
sg74
I2367
sg75
I2280
sg76
I1791
sg77
I2939
sg78
I3167
sg79
I0
sg80
I2352
sg81
I3332
sg82
I2844
sg83
I774
sg84
I1399
sg85
I2653
sg86
I1135
sg87
I2734
sg88
I2627
sg89
I2786
sg90
I1704
sg91
I838
sg92
I2951
sg93
I1446
sg94
I2547
sg95
I2428
sg96
I3819
sg97
I2715
sg98
I2680
sg99
I1842
sg100
I2675
sg101
I2563
sg102
I4012
ssg80
(dp179
g2
I1188
sg4
I706
sg5
I2413
sg6
I710
sg7
I1934
sg8
I1996
sg9
I1074
sg10
I1941
sg11
I2189
sg12
I2280
sg13
I2798
sg14
I3247
sg15
I950
sg16
I915
sg17
I2496
sg18
I1973
sg19
I1624
sg20
I814
sg21
I2798
sg22
I939
sg23
I3028
sg24
I2173
sg25
I2752
sg26
I472
sg27
I878
sg28
I2463
sg29
I2438
sg30
I1863
sg31
I742
sg32
I2001
sg33
I2465
sg34
I2145
sg35
I97
sg36
I1834
sg37
I2093
sg38
I2614
sg39
I1106
sg40
I877
sg41
I2031
sg42
I3707
sg43
I791
sg44
I1914
sg45
I2285
sg46
I403
sg47
I944
sg48
I1996
sg49
I1780
sg50
I1775
sg51
I546
sg52
I843
sg53
I1259
sg54
I730
sg55
I2349
sg56
I3876
sg57
I2105
sg58
I2309
sg59
I580
sg60
I825
sg61
I3173
sg62
I2085
sg63
I2667
sg64
I3036
sg65
I2102
sg66
I258
sg67
I2238
sg68
I773
sg69
I2654
sg70
I728
sg71
I1956
sg72
I1058
sg73
I2623
sg74
I113
sg75
I316
sg76
I1759
sg77
I2265
sg78
I2534
sg79
I2352
sg80
I0
sg81
I3213
sg82
I2167
sg83
I737
sg84
I1320
sg85
I2467
sg86
I1078
sg87
I2175
sg88
I1977
sg89
I2452
sg90
I1609
sg91
I788
sg92
I2432
sg93
I2206
sg94
I1958
sg95
I2129
sg96
I3651
sg97
I1801
sg98
I2201
sg99
I1758
sg100
I2060
sg101
I1968
sg102
I3882
ssg81
(dp180
g2
I931
sg4
I646
sg5
I3174
sg6
I561
sg7
I3187
sg8
I3226
sg9
I3357
sg10
I1179
sg11
I3242
sg12
I3236
sg13
I3308
sg14
I3406
sg15
I929
sg16
I739
sg17
I3257
sg18
I3212
sg19
I692
sg20
I703
sg21
I3248
sg22
I675
sg23
I3411
sg24
I3245
sg25
I3235
sg26
I3257
sg27
I570
sg28
I3382
sg29
I3192
sg30
I798
sg31
I579
sg32
I1913
sg33
I1205
sg34
I3206
sg35
I3228
sg36
I2454
sg37
I1213
sg38
I1018
sg39
I577
sg40
I459
sg41
I2486
sg42
I3251
sg43
I632
sg44
I3190
sg45
I3154
sg46
I3221
sg47
I842
sg48
I3218
sg49
I3131
sg50
I3201
sg51
I3312
sg52
I3252
sg53
I569
sg54
I563
sg55
I3245
sg56
I3138
sg57
I3212
sg58
I3173
sg59
I473
sg60
I3246
sg61
I3432
sg62
I3158
sg63
I3211
sg64
I3276
sg65
I3093
sg66
I3259
sg67
I928
sg68
I602
sg69
I3249
sg70
I449
sg71
I1348
sg72
I823
sg73
I1519
sg74
I3229
sg75
I3011
sg76
I929
sg77
I3220
sg78
I3363
sg79
I3332
sg80
I3213
sg81
I0
sg82
I3246
sg83
I489
sg84
I462
sg85
I3232
sg86
I713
sg87
I3218
sg88
I3261
sg89
I3275
sg90
I705
sg91
I648
sg92
I3257
sg93
I3248
sg94
I3206
sg95
I3219
sg96
I1521
sg97
I3245
sg98
I3100
sg99
I1147
sg100
I3252
sg101
I3173
sg102
I1404
ssg82
(dp181
g2
I1177
sg4
I719
sg5
I2799
sg6
I711
sg7
I2090
sg8
I2134
sg9
I2744
sg10
I2000
sg11
I2666
sg12
I1166
sg13
I3165
sg14
I2628
sg15
I966
sg16
I910
sg17
I2590
sg18
I2064
sg19
I1697
sg20
I819
sg21
I2902
sg22
I952
sg23
I3215
sg24
I2620
sg25
I3172
sg26
I2193
sg27
I851
sg28
I2913
sg29
I2157
sg30
I1928
sg31
I743
sg32
I2078
sg33
I2549
sg34
I2239
sg35
I2164
sg36
I1919
sg37
I2168
sg38
I2690
sg39
I1122
sg40
I882
sg41
I2055
sg42
I3837
sg43
I794
sg44
I1977
sg45
I2401
sg46
I2117
sg47
I976
sg48
I2096
sg49
I1910
sg50
I1919
sg51
I2327
sg52
I2294
sg53
I1288
sg54
I726
sg55
I2461
sg56
I4077
sg57
I2256
sg58
I2426
sg59
I577
sg60
I2280
sg61
I3527
sg62
I2235
sg63
I2732
sg64
I2468
sg65
I2198
sg66
I2176
sg67
I2314
sg68
I772
sg69
I3088
sg70
I741
sg71
I1964
sg72
I1075
sg73
I2639
sg74
I2184
sg75
I2091
sg76
I1792
sg77
I2839
sg78
I1835
sg79
I2844
sg80
I2167
sg81
I3246
sg82
I0
sg83
I730
sg84
I1391
sg85
I2811
sg86
I1075
sg87
I2268
sg88
I2175
sg89
I2818
sg90
I1680
sg91
I807
sg92
I1656
sg93
I2652
sg94
I2056
sg95
I2536
sg96
I3815
sg97
I2583
sg98
I2302
sg99
I1757
sg100
I2188
sg101
I2091
sg102
I3922
ssg83
(dp182
g2
I504
sg4
I606
sg5
I626
sg6
I475
sg7
I733
sg8
I770
sg9
I780
sg10
I767
sg11
I752
sg12
I732
sg13
I781
sg14
I810
sg15
I474
sg16
I462
sg17
I730
sg18
I728
sg19
I615
sg20
I503
sg21
I749
sg22
I603
sg23
I794
sg24
I715
sg25
I792
sg26
I747
sg27
I620
sg28
I777
sg29
I772
sg30
I704
sg31
I475
sg32
I557
sg33
I747
sg34
I713
sg35
I728
sg36
I664
sg37
I504
sg38
I591
sg39
I424
sg40
I491
sg41
I877
sg42
I854
sg43
I469
sg44
I736
sg45
I725
sg46
I662
sg47
I338
sg48
I711
sg49
I722
sg50
I735
sg51
I759
sg52
I744
sg53
I620
sg54
I477
sg55
I765
sg56
I873
sg57
I737
sg58
I810
sg59
I441
sg60
I737
sg61
I798
sg62
I736
sg63
I735
sg64
I790
sg65
I660
sg66
I725
sg67
I640
sg68
I478
sg69
I773
sg70
I548
sg71
I397
sg72
I479
sg73
I544
sg74
I726
sg75
I728
sg76
I795
sg77
I594
sg78
I794
sg79
I774
sg80
I737
sg81
I489
sg82
I730
sg83
I0
sg84
I473
sg85
I753
sg86
I471
sg87
I755
sg88
I746
sg89
I765
sg90
I521
sg91
I566
sg92
I659
sg93
I758
sg94
I740
sg95
I754
sg96
I744
sg97
I783
sg98
I532
sg99
I468
sg100
I727
sg101
I764
sg102
I622
ssg84
(dp183
g2
I586
sg4
I455
sg5
I1320
sg6
I527
sg7
I1341
sg8
I1359
sg9
I1386
sg10
I661
sg11
I1346
sg12
I1411
sg13
I1412
sg14
I1323
sg15
I707
sg16
I434
sg17
I1360
sg18
I1359
sg19
I546
sg20
I576
sg21
I1421
sg22
I612
sg23
I1447
sg24
I1371
sg25
I1434
sg26
I1324
sg27
I392
sg28
I1400
sg29
I1366
sg30
I397
sg31
I545
sg32
I888
sg33
I567
sg34
I1400
sg35
I1321
sg36
I1016
sg37
I722
sg38
I273
sg39
I583
sg40
I283
sg41
I1115
sg42
I1170
sg43
I582
sg44
I1368
sg45
I1306
sg46
I1328
sg47
I547
sg48
I1385
sg49
I1362
sg50
I1351
sg51
I1338
sg52
I1329
sg53
I482
sg54
I530
sg55
I1367
sg56
I1534
sg57
I1375
sg58
I1482
sg59
I469
sg60
I1329
sg61
I1388
sg62
I1354
sg63
I1320
sg64
I1472
sg65
I1301
sg66
I1319
sg67
I582
sg68
I573
sg69
I1425
sg70
I487
sg71
I639
sg72
I615
sg73
I885
sg74
I1319
sg75
I1337
sg76
I564
sg77
I1371
sg78
I1295
sg79
I1399
sg80
I1320
sg81
I462
sg82
I1391
sg83
I473
sg84
I0
sg85
I1381
sg86
I583
sg87
I1398
sg88
I1356
sg89
I1347
sg90
I427
sg91
I609
sg92
I1415
sg93
I1397
sg94
I1298
sg95
I1362
sg96
I755
sg97
I1410
sg98
I1257
sg99
I686
sg100
I1364
sg101
I1364
sg102
I649
ssg85
(dp184
g2
I1165
sg4
I721
sg5
I785
sg6
I585
sg7
I2628
sg8
I2643
sg9
I2931
sg10
I1903
sg11
I2492
sg12
I2821
sg13
I1613
sg14
I3563
sg15
I843
sg16
I904
sg17
I3072
sg18
I2655
sg19
I1472
sg20
I823
sg21
I3145
sg22
I941
sg23
I3390
sg24
I2599
sg25
I1190
sg26
I2502
sg27
I875
sg28
I2719
sg29
I2877
sg30
I1485
sg31
I616
sg32
I1780
sg33
I2116
sg34
I2702
sg35
I2459
sg36
I2225
sg37
I1931
sg38
I2525
sg39
I706
sg40
I864
sg41
I2158
sg42
I3719
sg43
I782
sg44
I2562
sg45
I2820
sg46
I2480
sg47
I1006
sg48
I2659
sg49
I2482
sg50
I2545
sg51
I2530
sg52
I2545
sg53
I958
sg54
I595
sg55
I2846
sg56
I3790
sg57
I2675
sg58
I2759
sg59
I558
sg60
I2527
sg61
I2680
sg62
I2693
sg63
I3178
sg64
I3457
sg65
I2678
sg66
I2501
sg67
I1762
sg68
I646
sg69
I1491
sg70
I542
sg71
I1812
sg72
I1026
sg73
I2157
sg74
I2461
sg75
I2395
sg76
I1286
sg77
I2985
sg78
I3066
sg79
I2653
sg80
I2467
sg81
I3232
sg82
I2811
sg83
I753
sg84
I1381
sg85
I0
sg86
I878
sg87
I2687
sg88
I2677
sg89
I2929
sg90
I1667
sg91
I823
sg92
I2962
sg93
I2482
sg94
I2649
sg95
I2382
sg96
I3328
sg97
I2749
sg98
I2791
sg99
I1619
sg100
I2739
sg101
I2613
sg102
I3561
ssg86
(dp185
g2
I618
sg4
I594
sg5
I801
sg6
I350
sg7
I1080
sg8
I1066
sg9
I1051
sg10
I1063
sg11
I1136
sg12
I1006
sg13
I1041
sg14
I1022
sg15
I419
sg16
I482
sg17
I845
sg18
I979
sg19
I568
sg20
I520
sg21
I981
sg22
I621
sg23
I1072
sg24
I1025
sg25
I1101
sg26
I1080
sg27
I685
sg28
I1164
sg29
I1055
sg30
I791
sg31
I379
sg32
I860
sg33
I870
sg34
I867
sg35
I1072
sg36
I1009
sg37
I564
sg38
I843
sg39
I418
sg40
I529
sg41
I1105
sg42
I1060
sg43
I271
sg44
I1096
sg45
I1045
sg46
I813
sg47
I543
sg48
I863
sg49
I1077
sg50
I888
sg51
I1052
sg52
I1072
sg53
I718
sg54
I367
sg55
I1081
sg56
I1105
sg57
I1067
sg58
I1076
sg59
I378
sg60
I1066
sg61
I1155
sg62
I1065
sg63
I1050
sg64
I1002
sg65
I802
sg66
I1072
sg67
I897
sg68
I404
sg69
I1088
sg70
I609
sg71
I655
sg72
I252
sg73
I856
sg74
I1071
sg75
I958
sg76
I1048
sg77
I892
sg78
I1083
sg79
I1135
sg80
I1078
sg81
I713
sg82
I1075
sg83
I471
sg84
I583
sg85
I878
sg86
I0
sg87
I1070
sg88
I1079
sg89
I915
sg90
I565
sg91
I628
sg92
I943
sg93
I1140
sg94
I1091
sg95
I1081
sg96
I957
sg97
I1101
sg98
I647
sg99
I615
sg100
I1118
sg101
I1050
sg102
I997
ssg87
(dp186
g2
I1138
sg4
I724
sg5
I2689
sg6
I710
sg7
I1675
sg8
I1681
sg9
I2645
sg10
I1943
sg11
I2597
sg12
I2351
sg13
I3076
sg14
I3279
sg15
I957
sg16
I925
sg17
I2291
sg18
I1485
sg19
I1676
sg20
I820
sg21
I2613
sg22
I956
sg23
I2944
sg24
I2597
sg25
I3031
sg26
I2207
sg27
I851
sg28
I2796
sg29
I2467
sg30
I1889
sg31
I741
sg32
I2017
sg33
I2480
sg34
I392
sg35
I2175
sg36
I1649
sg37
I2066
sg38
I2648
sg39
I1113
sg40
I893
sg41
I2010
sg42
I3785
sg43
I788
sg44
I1657
sg45
I2065
sg46
I2118
sg47
I986
sg48
I1502
sg49
I1561
sg50
I1536
sg51
I2268
sg52
I2323
sg53
I1237
sg54
I726
sg55
I2179
sg56
I4012
sg57
I1846
sg58
I559
sg59
I573
sg60
I2293
sg61
I3453
sg62
I1553
sg63
I2448
sg64
I3114
sg65
I407
sg66
I2190
sg67
I2258
sg68
I770
sg69
I3008
sg70
I746
sg71
I1920
sg72
I1076
sg73
I2585
sg74
I2201
sg75
I2139
sg76
I1751
sg77
I2741
sg78
I2641
sg79
I2734
sg80
I2175
sg81
I3218
sg82
I2268
sg83
I755
sg84
I1398
sg85
I2687
sg86
I1070
sg87
I0
sg88
I1744
sg89
I2790
sg90
I1651
sg91
I816
sg92
I2448
sg93
I2536
sg94
I1163
sg95
I2538
sg96
I3761
sg97
I2578
sg98
I1935
sg99
I1738
sg100
I1798
sg101
I1147
sg102
I3860
ssg88
(dp187
g2
I1153
sg4
I715
sg5
I2648
sg6
I704
sg7
I884
sg8
I947
sg9
I2541
sg10
I1969
sg11
I2463
sg12
I2228
sg13
I2985
sg14
I3259
sg15
I955
sg16
I930
sg17
I2209
sg18
I1580
sg19
I1648
sg20
I809
sg21
I2475
sg22
I969
sg23
I2810
sg24
I2419
sg25
I2959
sg26
I2025
sg27
I851
sg28
I2692
sg29
I2429
sg30
I1859
sg31
I735
sg32
I2001
sg33
I2489
sg34
I1753
sg35
I1970
sg36
I1528
sg37
I2080
sg38
I2634
sg39
I1112
sg40
I872
sg41
I2021
sg42
I3797
sg43
I787
sg44
I1529
sg45
I1940
sg46
I1943
sg47
I951
sg48
I1603
sg49
I1383
sg50
I752
sg51
I2144
sg52
I2152
sg53
I1247
sg54
I721
sg55
I2067
sg56
I3942
sg57
I1718
sg58
I1922
sg59
I577
sg60
I2130
sg61
I3386
sg62
I1677
sg63
I1940
sg64
I3006
sg65
I1708
sg66
I1999
sg67
I2267
sg68
I766
sg69
I2912
sg70
I754
sg71
I1946
sg72
I1055
sg73
I2615
sg74
I2002
sg75
I1944
sg76
I1758
sg77
I2666
sg78
I2551
sg79
I2627
sg80
I1977
sg81
I3261
sg82
I2175
sg83
I746
sg84
I1356
sg85
I2677
sg86
I1079
sg87
I1744
sg88
I0
sg89
I2619
sg90
I1611
sg91
I792
sg92
I2421
sg93
I2430
sg94
I1547
sg95
I2397
sg96
I3703
sg97
I2406
sg98
I1863
sg99
I1762
sg100
I1141
sg101
I1538
sg102
I3920
ssg89
(dp188
g2
I1178
sg4
I755
sg5
I2887
sg6
I596
sg7
I2604
sg8
I2650
sg9
I2952
sg10
I1901
sg11
I2637
sg12
I2858
sg13
I3122
sg14
I3692
sg15
I858
sg16
I905
sg17
I3096
sg18
I2661
sg19
I1468
sg20
I838
sg21
I3261
sg22
I967
sg23
I3435
sg24
I1706
sg25
I2998
sg26
I2494
sg27
I831
sg28
I2839
sg29
I2982
sg30
I1465
sg31
I625
sg32
I1793
sg33
I2087
sg34
I2814
sg35
I2440
sg36
I2235
sg37
I1963
sg38
I2512
sg39
I709
sg40
I876
sg41
I2171
sg42
I3917
sg43
I803
sg44
I2529
sg45
I2790
sg46
I2481
sg47
I1004
sg48
I2718
sg49
I2443
sg50
I2533
sg51
I2582
sg52
I2511
sg53
I942
sg54
I608
sg55
I2858
sg56
I3836
sg57
I2715
sg58
I2886
sg59
I578
sg60
I2497
sg61
I3303
sg62
I2663
sg63
I3180
sg64
I3556
sg65
I2737
sg66
I2459
sg67
I1779
sg68
I653
sg69
I3004
sg70
I564
sg71
I1837
sg72
I1057
sg73
I2144
sg74
I2447
sg75
I2337
sg76
I1282
sg77
I2995
sg78
I3084
sg79
I2786
sg80
I2452
sg81
I3275
sg82
I2818
sg83
I765
sg84
I1347
sg85
I2929
sg86
I915
sg87
I2790
sg88
I2619
sg89
I0
sg90
I1700
sg91
I801
sg92
I3068
sg93
I2535
sg94
I2612
sg95
I2613
sg96
I3368
sg97
I2731
sg98
I2851
sg99
I1647
sg100
I2716
sg101
I2654
sg102
I3628
ssg90
(dp189
g2
I545
sg4
I657
sg5
I1584
sg6
I466
sg7
I1618
sg8
I1654
sg9
I1715
sg10
I652
sg11
I1650
sg12
I1674
sg13
I1678
sg14
I1536
sg15
I484
sg16
I565
sg17
I1659
sg18
I1640
sg19
I807
sg20
I514
sg21
I1733
sg22
I498
sg23
I1900
sg24
I1604
sg25
I1703
sg26
I1655
sg27
I399
sg28
I1738
sg29
I1648
sg30
I626
sg31
I479
sg32
I422
sg33
I657
sg34
I1659
sg35
I1612
sg36
I1040
sg37
I672
sg38
I774
sg39
I515
sg40
I472
sg41
I1064
sg42
I912
sg43
I523
sg44
I1621
sg45
I1561
sg46
I1626
sg47
I632
sg48
I1631
sg49
I1599
sg50
I1616
sg51
I1695
sg52
I1625
sg53
I583
sg54
I467
sg55
I1654
sg56
I1389
sg57
I1634
sg58
I1646
sg59
I518
sg60
I1637
sg61
I1753
sg62
I1603
sg63
I1685
sg64
I1702
sg65
I1573
sg66
I1632
sg67
I813
sg68
I479
sg69
I1669
sg70
I566
sg71
I702
sg72
I647
sg73
I612
sg74
I1611
sg75
I1613
sg76
I904
sg77
I1547
sg78
I1582
sg79
I1704
sg80
I1609
sg81
I705
sg82
I1680
sg83
I521
sg84
I427
sg85
I1667
sg86
I565
sg87
I1651
sg88
I1611
sg89
I1700
sg90
I0
sg91
I625
sg92
I1669
sg93
I1666
sg94
I1663
sg95
I1635
sg96
I1162
sg97
I1672
sg98
I1509
sg99
I513
sg100
I1645
sg101
I1595
sg102
I822
ssg91
(dp190
g2
I651
sg4
I601
sg5
I758
sg6
I613
sg7
I786
sg8
I824
sg9
I824
sg10
I859
sg11
I831
sg12
I831
sg13
I837
sg14
I876
sg15
I636
sg16
I613
sg17
I844
sg18
I793
sg19
I663
sg20
I645
sg21
I773
sg22
I646
sg23
I857
sg24
I764
sg25
I834
sg26
I782
sg27
I637
sg28
I846
sg29
I803
sg30
I574
sg31
I642
sg32
I639
sg33
I739
sg34
I826
sg35
I780
sg36
I570
sg37
I714
sg38
I628
sg39
I600
sg40
I562
sg41
I1142
sg42
I798
sg43
I621
sg44
I781
sg45
I756
sg46
I758
sg47
I749
sg48
I810
sg49
I785
sg50
I804
sg51
I799
sg52
I792
sg53
I604
sg54
I617
sg55
I796
sg56
I831
sg57
I802
sg58
I931
sg59
I543
sg60
I790
sg61
I836
sg62
I789
sg63
I839
sg64
I856
sg65
I764
sg66
I779
sg67
I716
sg68
I635
sg69
I813
sg70
I567
sg71
I614
sg72
I670
sg73
I706
sg74
I780
sg75
I734
sg76
I869
sg77
I700
sg78
I855
sg79
I838
sg80
I788
sg81
I648
sg82
I807
sg83
I566
sg84
I609
sg85
I823
sg86
I628
sg87
I816
sg88
I792
sg89
I801
sg90
I625
sg91
I0
sg92
I850
sg93
I814
sg94
I798
sg95
I808
sg96
I709
sg97
I802
sg98
I760
sg99
I575
sg100
I814
sg101
I817
sg102
I816
ssg92
(dp191
g2
I1166
sg4
I651
sg5
I2904
sg6
I592
sg7
I2398
sg8
I2362
sg9
I2868
sg10
I1880
sg11
I2833
sg12
I1645
sg13
I3275
sg14
I2803
sg15
I841
sg16
I804
sg17
I2736
sg18
I2367
sg19
I1698
sg20
I760
sg21
I2925
sg22
I836
sg23
I3395
sg24
I2900
sg25
I3257
sg26
I2452
sg27
I799
sg28
I3021
sg29
I2338
sg30
I1894
sg31
I623
sg32
I2122
sg33
I2382
sg34
I2450
sg35
I2423
sg36
I2117
sg37
I2129
sg38
I2650
sg39
I955
sg40
I871
sg41
I2076
sg42
I3821
sg43
I745
sg44
I2275
sg45
I2621
sg46
I2373
sg47
I981
sg48
I2357
sg49
I2195
sg50
I2217
sg51
I2456
sg52
I2552
sg53
I1184
sg54
I607
sg55
I2679
sg56
I4080
sg57
I2435
sg58
I2614
sg59
I507
sg60
I2522
sg61
I3715
sg62
I2450
sg63
I2919
sg64
I2633
sg65
I2386
sg66
I2441
sg67
I2135
sg68
I644
sg69
I3260
sg70
I601
sg71
I1886
sg72
I954
sg73
I2502
sg74
I2453
sg75
I2390
sg76
I1620
sg77
I2906
sg78
I1993
sg79
I2951
sg80
I2432
sg81
I3257
sg82
I1656
sg83
I659
sg84
I1415
sg85
I2962
sg86
I943
sg87
I2448
sg88
I2421
sg89
I3068
sg90
I1669
sg91
I850
sg92
I0
sg93
I2808
sg94
I2370
sg95
I2756
sg96
I3623
sg97
I2812
sg98
I2446
sg99
I1709
sg100
I2430
sg101
I2299
sg102
I3862
ssg93
(dp192
g2
I1243
sg4
I727
sg5
I2443
sg6
I757
sg7
I2365
sg8
I2420
sg9
I2773
sg10
I1978
sg11
I1290
sg12
I2630
sg13
I2882
sg14
I3577
sg15
I1010
sg16
I934
sg17
I2792
sg18
I2308
sg19
I1685
sg20
I839
sg21
I3066
sg22
I964
sg23
I3358
sg24
I2394
sg25
I2737
sg26
I2248
sg27
I891
sg28
I1527
sg29
I2808
sg30
I1901
sg31
I794
sg32
I2075
sg33
I2549
sg34
I2454
sg35
I2205
sg36
I2064
sg37
I2133
sg38
I2680
sg39
I1120
sg40
I876
sg41
I2078
sg42
I3959
sg43
I823
sg44
I2308
sg45
I2684
sg46
I2089
sg47
I989
sg48
I2339
sg49
I2208
sg50
I2138
sg51
I2268
sg52
I2318
sg53
I1313
sg54
I775
sg55
I2635
sg56
I4104
sg57
I2469
sg58
I2633
sg59
I585
sg60
I2256
sg61
I3192
sg62
I2444
sg63
I2995
sg64
I3381
sg65
I2399
sg66
I2210
sg67
I2339
sg68
I834
sg69
I2744
sg70
I755
sg71
I1950
sg72
I1089
sg73
I2594
sg74
I2220
sg75
I2149
sg76
I1747
sg77
I2791
sg78
I2992
sg79
I1446
sg80
I2206
sg81
I3248
sg82
I2652
sg83
I758
sg84
I1397
sg85
I2482
sg86
I1140
sg87
I2536
sg88
I2430
sg89
I2535
sg90
I1666
sg91
I814
sg92
I2808
sg93
I0
sg94
I2350
sg95
I2208
sg96
I3766
sg97
I2540
sg98
I2510
sg99
I1750
sg100
I2475
sg101
I2393
sg102
I3926
ssg94
(dp193
g2
I1104
sg4
I719
sg5
I2607
sg6
I706
sg7
I1400
sg8
I1467
sg9
I2515
sg10
I1961
sg11
I2342
sg12
I2128
sg13
I2984
sg14
I3219
sg15
I933
sg16
I935
sg17
I2180
sg18
I1215
sg19
I1709
sg20
I810
sg21
I2532
sg22
I961
sg23
I2793
sg24
I2416
sg25
I2972
sg26
I1998
sg27
I838
sg28
I2631
sg29
I2352
sg30
I1931
sg31
I736
sg32
I1920
sg33
I2474
sg34
I1209
sg35
I1965
sg36
I1425
sg37
I2054
sg38
I2718
sg39
I1122
sg40
I861
sg41
I2020
sg42
I3731
sg43
I786
sg44
I1395
sg45
I1884
sg46
I1923
sg47
I957
sg48
I1296
sg49
I1259
sg50
I1305
sg51
I2118
sg52
I2115
sg53
I1236
sg54
I721
sg55
I2006
sg56
I3958
sg57
I1689
sg58
I1379
sg59
I570
sg60
I2101
sg61
I3399
sg62
I1335
sg63
I2300
sg64
I3013
sg65
I1173
sg66
I1979
sg67
I2265
sg68
I768
sg69
I2896
sg70
I737
sg71
I1938
sg72
I1044
sg73
I2521
sg74
I1987
sg75
I1929
sg76
I1829
sg77
I2663
sg78
I2522
sg79
I2547
sg80
I1958
sg81
I3206
sg82
I2056
sg83
I740
sg84
I1298
sg85
I2649
sg86
I1091
sg87
I1163
sg88
I1547
sg89
I2612
sg90
I1663
sg91
I798
sg92
I2370
sg93
I2350
sg94
I0
sg95
I2345
sg96
I3748
sg97
I2372
sg98
I1855
sg99
I1687
sg100
I1520
sg101
I283
sg102
I3877
ssg95
(dp194
g2
I1195
sg4
I728
sg5
I2318
sg6
I712
sg7
I2311
sg8
I2399
sg9
I2715
sg10
I1958
sg11
I2290
sg12
I2532
sg13
I2705
sg14
I3523
sg15
I953
sg16
I925
sg17
I2827
sg18
I2335
sg19
I1694
sg20
I836
sg21
I3105
sg22
I971
sg23
I3363
sg24
I2463
sg25
I2592
sg26
I2167
sg27
I864
sg28
I2485
sg29
I2734
sg30
I1896
sg31
I743
sg32
I2045
sg33
I2523
sg34
I2492
sg35
I2125
sg36
I2122
sg37
I2136
sg38
I2670
sg39
I1143
sg40
I861
sg41
I2038
sg42
I3949
sg43
I820
sg44
I2280
sg45
I2660
sg46
I2062
sg47
I1003
sg48
I2335
sg49
I2215
sg50
I2164
sg51
I2281
sg52
I2258
sg53
I1259
sg54
I728
sg55
I2647
sg56
I4118
sg57
I2451
sg58
I2650
sg59
I593
sg60
I2238
sg61
I3132
sg62
I2421
sg63
I2952
sg64
I3408
sg65
I2442
sg66
I2137
sg67
I2305
sg68
I773
sg69
I2582
sg70
I764
sg71
I1947
sg72
I1107
sg73
I2622
sg74
I2154
sg75
I2077
sg76
I1762
sg77
I2770
sg78
I2910
sg79
I2428
sg80
I2129
sg81
I3219
sg82
I2536
sg83
I754
sg84
I1362
sg85
I2382
sg86
I1081
sg87
I2538
sg88
I2397
sg89
I2613
sg90
I1635
sg91
I808
sg92
I2756
sg93
I2208
sg94
I2345
sg95
I0
sg96
I3754
sg97
I2520
sg98
I2519
sg99
I1754
sg100
I2466
sg101
I2370
sg102
I3903
ssg96
(dp195
g2
I537
sg4
I820
sg5
I3310
sg6
I772
sg7
I3672
sg8
I3730
sg9
I3773
sg10
I1365
sg11
I3723
sg12
I3752
sg13
I3824
sg14
I3572
sg15
I835
sg16
I833
sg17
I3362
sg18
I3573
sg19
I1032
sg20
I779
sg21
I3758
sg22
I1003
sg23
I3928
sg24
I3751
sg25
I3793
sg26
I3726
sg27
I779
sg28
I3810
sg29
I3816
sg30
I1383
sg31
I797
sg32
I1546
sg33
I1830
sg34
I3536
sg35
I3659
sg36
I3186
sg37
I1273
sg38
I1442
sg39
I1095
sg40
I649
sg41
I1351
sg42
I2974
sg43
I785
sg44
I3719
sg45
I3654
sg46
I3404
sg47
I693
sg48
I3477
sg49
I3678
sg50
I3460
sg51
I3767
sg52
I3662
sg53
I962
sg54
I773
sg55
I3735
sg56
I3729
sg57
I3709
sg58
I3660
sg59
I647
sg60
I3639
sg61
I4084
sg62
I3682
sg63
I3554
sg64
I3797
sg65
I3356
sg66
I3675
sg67
I1692
sg68
I826
sg69
I3727
sg70
I879
sg71
I724
sg72
I1013
sg73
I1020
sg74
I3658
sg75
I3599
sg76
I1175
sg77
I3537
sg78
I3806
sg79
I3819
sg80
I3651
sg81
I1521
sg82
I3815
sg83
I744
sg84
I755
sg85
I3328
sg86
I957
sg87
I3761
sg88
I3703
sg89
I3368
sg90
I1162
sg91
I709
sg92
I3623
sg93
I3766
sg94
I3748
sg95
I3754
sg96
I0
sg97
I3769
sg98
I3001
sg99
I434
sg100
I3705
sg101
I3693
sg102
I1897
ssg97
(dp196
g2
I1173
sg4
I725
sg5
I2703
sg6
I727
sg7
I2366
sg8
I2427
sg9
I2385
sg10
I1948
sg11
I2529
sg12
I2630
sg13
I3166
sg14
I3519
sg15
I979
sg16
I934
sg17
I2875
sg18
I2385
sg19
I1743
sg20
I841
sg21
I3064
sg22
I963
sg23
I3356
sg24
I2580
sg25
I3046
sg26
I1844
sg27
I870
sg28
I2763
sg29
I2825
sg30
I1910
sg31
I760
sg32
I2018
sg33
I2541
sg34
I2529
sg35
I1797
sg36
I2152
sg37
I2161
sg38
I2702
sg39
I1142
sg40
I881
sg41
I2047
sg42
I3918
sg43
I811
sg44
I2334
sg45
I2652
sg46
I1750
sg47
I979
sg48
I2408
sg49
I2239
sg50
I2181
sg51
I1956
sg52
I1988
sg53
I1282
sg54
I748
sg55
I2690
sg56
I4145
sg57
I2520
sg58
I2703
sg59
I572
sg60
I1949
sg61
I3480
sg62
I2486
sg63
I2953
sg64
I3369
sg65
I2481
sg66
I1809
sg67
I2313
sg68
I790
sg69
I3038
sg70
I754
sg71
I1970
sg72
I1081
sg73
I2604
sg74
I1821
sg75
I1762
sg76
I1775
sg77
I2680
sg78
I2901
sg79
I2715
sg80
I1801
sg81
I3245
sg82
I2583
sg83
I783
sg84
I1410
sg85
I2749
sg86
I1101
sg87
I2578
sg88
I2406
sg89
I2731
sg90
I1672
sg91
I802
sg92
I2812
sg93
I2540
sg94
I2372
sg95
I2520
sg96
I3769
sg97
I0
sg98
I2506
sg99
I1730
sg100
I2441
sg101
I2402
sg102
I3924
ssg98
(dp197
g2
I1029
sg4
I558
sg5
I2784
sg6
I410
sg7
I1841
sg8
I1834
sg9
I2636
sg10
I1578
sg11
I2496
sg12
I2310
sg13
I2903
sg14
I3171
sg15
I659
sg16
I622
sg17
I1319
sg18
I1833
sg19
I1334
sg20
I613
sg21
I2528
sg22
I669
sg23
I2760
sg24
I2484
sg25
I2885
sg26
I2261
sg27
I752
sg28
I2756
sg29
I2403
sg30
I1374
sg31
I434
sg32
I1624
sg33
I1853
sg34
I1992
sg35
I2197
sg36
I1360
sg37
I1779
sg38
I2282
sg39
I516
sg40
I828
sg41
I1906
sg42
I3461
sg43
I634
sg44
I1733
sg45
I514
sg46
I2257
sg47
I846
sg48
I1826
sg49
I1669
sg50
I1742
sg51
I2298
sg52
I2376
sg53
I731
sg54
I415
sg55
I2187
sg56
I3485
sg57
I1544
sg58
I2027
sg59
I338
sg60
I2325
sg61
I3254
sg62
I1900
sg63
I2352
sg64
I3015
sg65
I1954
sg66
I2242
sg67
I1566
sg68
I459
sg69
I2882
sg70
I396
sg71
I1754
sg72
I776
sg73
I2042
sg74
I2195
sg75
I2151
sg76
I1021
sg77
I2694
sg78
I2584
sg79
I2680
sg80
I2201
sg81
I3100
sg82
I2302
sg83
I532
sg84
I1257
sg85
I2791
sg86
I647
sg87
I1935
sg88
I1863
sg89
I2851
sg90
I1509
sg91
I760
sg92
I2446
sg93
I2510
sg94
I1855
sg95
I2519
sg96
I3001
sg97
I2506
sg98
I0
sg99
I1549
sg100
I1853
sg101
I1776
sg102
I3361
ssg99
(dp198
g2
I492
sg4
I464
sg5
I1615
sg6
I515
sg7
I1739
sg8
I1722
sg9
I1735
sg10
I718
sg11
I1826
sg12
I1705
sg13
I1702
sg14
I1762
sg15
I732
sg16
I541
sg17
I1627
sg18
I1637
sg19
I369
sg20
I426
sg21
I1733
sg22
I431
sg23
I1812
sg24
I1697
sg25
I1722
sg26
I1749
sg27
I413
sg28
I1858
sg29
I1696
sg30
I486
sg31
I550
sg32
I1636
sg33
I433
sg34
I1632
sg35
I1751
sg36
I1425
sg37
I489
sg38
I807
sg39
I504
sg40
I452
sg41
I2024
sg42
I1774
sg43
I374
sg44
I1716
sg45
I1730
sg46
I1622
sg47
I680
sg48
I1580
sg49
I1671
sg50
I1626
sg51
I1728
sg52
I1780
sg53
I359
sg54
I518
sg55
I1762
sg56
I1805
sg57
I1705
sg58
I1785
sg59
I419
sg60
I1749
sg61
I1839
sg62
I1716
sg63
I1805
sg64
I1720
sg65
I1608
sg66
I1779
sg67
I380
sg68
I544
sg69
I1772
sg70
I417
sg71
I187
sg72
I454
sg73
I883
sg74
I1751
sg75
I1577
sg76
I692
sg77
I1627
sg78
I1814
sg79
I1842
sg80
I1758
sg81
I1147
sg82
I1757
sg83
I468
sg84
I686
sg85
I1619
sg86
I615
sg87
I1738
sg88
I1762
sg89
I1647
sg90
I513
sg91
I575
sg92
I1709
sg93
I1750
sg94
I1687
sg95
I1754
sg96
I434
sg97
I1730
sg98
I1549
sg99
I0
sg100
I1748
sg101
I1684
sg102
I1239
ssg100
(dp199
g2
I1166
sg4
I779
sg5
I2635
sg6
I759
sg7
I1063
sg8
I1125
sg9
I2564
sg10
I1985
sg11
I2511
sg12
I2269
sg13
I3064
sg14
I3279
sg15
I1020
sg16
I982
sg17
I2244
sg18
I1601
sg19
I1655
sg20
I853
sg21
I2561
sg22
I968
sg23
I2848
sg24
I2522
sg25
I3044
sg26
I2094
sg27
I854
sg28
I2748
sg29
I2454
sg30
I1879
sg31
I791
sg32
I1991
sg33
I2487
sg34
I1823
sg35
I2052
sg36
I1579
sg37
I2104
sg38
I2716
sg39
I1164
sg40
I884
sg41
I2005
sg42
I3803
sg43
I823
sg44
I1531
sg45
I1976
sg46
I2016
sg47
I958
sg48
I1636
sg49
I1353
sg50
I1006
sg51
I2214
sg52
I2219
sg53
I1275
sg54
I776
sg55
I2088
sg56
I3916
sg57
I1754
sg58
I1984
sg59
I633
sg60
I2201
sg61
I3446
sg62
I1717
sg63
I2062
sg64
I3117
sg65
I1780
sg66
I2083
sg67
I2276
sg68
I821
sg69
I2955
sg70
I752
sg71
I1961
sg72
I1103
sg73
I2639
sg74
I2082
sg75
I2035
sg76
I1758
sg77
I2655
sg78
I2630
sg79
I2675
sg80
I2060
sg81
I3252
sg82
I2188
sg83
I727
sg84
I1364
sg85
I2739
sg86
I1118
sg87
I1798
sg88
I1141
sg89
I2716
sg90
I1645
sg91
I814
sg92
I2430
sg93
I2475
sg94
I1520
sg95
I2466
sg96
I3705
sg97
I2441
sg98
I1853
sg99
I1748
sg100
I0
sg101
I1503
sg102
I3909
ssg101
(dp200
g2
I1109
sg4
I691
sg5
I2570
sg6
I682
sg7
I1425
sg8
I1392
sg9
I2413
sg10
I1927
sg11
I2421
sg12
I2154
sg13
I2919
sg14
I3140
sg15
I927
sg16
I910
sg17
I2160
sg18
I1257
sg19
I1661
sg20
I785
sg21
I2413
sg22
I935
sg23
I2779
sg24
I2452
sg25
I2940
sg26
I2001
sg27
I856
sg28
I2671
sg29
I2286
sg30
I1880
sg31
I714
sg32
I1984
sg33
I2437
sg34
I1189
sg35
I1976
sg36
I1533
sg37
I2019
sg38
I2688
sg39
I1097
sg40
I867
sg41
I2010
sg42
I3696
sg43
I760
sg44
I1426
sg45
I1914
sg46
I1927
sg47
I977
sg48
I1191
sg49
I1284
sg50
I1336
sg51
I2040
sg52
I2166
sg53
I1180
sg54
I699
sg55
I2034
sg56
I3850
sg57
I1603
sg58
I1359
sg59
I549
sg60
I2150
sg61
I3403
sg62
I1348
sg63
I2287
sg64
I2985
sg65
I1183
sg66
I2009
sg67
I2214
sg68
I743
sg69
I2917
sg70
I708
sg71
I1855
sg72
I1028
sg73
I2526
sg74
I1999
sg75
I1942
sg76
I1730
sg77
I2544
sg78
I2457
sg79
I2563
sg80
I1968
sg81
I3173
sg82
I2091
sg83
I764
sg84
I1364
sg85
I2613
sg86
I1050
sg87
I1147
sg88
I1538
sg89
I2654
sg90
I1595
sg91
I817
sg92
I2299
sg93
I2393
sg94
I283
sg95
I2370
sg96
I3693
sg97
I2402
sg98
I1776
sg99
I1684
sg100
I1503
sg101
I0
sg102
I3801
ssg102
(dp201
g2
I976
sg4
I709
sg5
I3445
sg6
I805
sg7
I3864
sg8
I3850
sg9
I3939
sg10
I1540
sg11
I3939
sg12
I3833
sg13
I3989
sg14
I3866
sg15
I1168
sg16
I880
sg17
I3586
sg18
I3765
sg19
I928
sg20
I778
sg21
I3839
sg22
I885
sg23
I4019
sg24
I3847
sg25
I3926
sg26
I3884
sg27
I770
sg28
I4051
sg29
I3853
sg30
I1203
sg31
I823
sg32
I2672
sg33
I1826
sg34
I3677
sg35
I3879
sg36
I3398
sg37
I1310
sg38
I1353
sg39
I989
sg40
I643
sg41
I2556
sg42
I3728
sg43
I841
sg44
I3878
sg45
I3843
sg46
I3604
sg47
I876
sg48
I3609
sg49
I3779
sg50
I3615
sg51
I3883
sg52
I3881
sg53
I845
sg54
I810
sg55
I3914
sg56
I3922
sg57
I3843
sg58
I3924
sg59
I618
sg60
I3877
sg61
I4191
sg62
I3798
sg63
I3758
sg64
I3852
sg65
I3481
sg66
I3893
sg67
I1373
sg68
I852
sg69
I3945
sg70
I751
sg71
I1432
sg72
I1058
sg73
I1819
sg74
I3878
sg75
I3663
sg76
I1347
sg77
I3688
sg78
I4031
sg79
I4012
sg80
I3882
sg81
I1404
sg82
I3922
sg83
I622
sg84
I649
sg85
I3561
sg86
I997
sg87
I3860
sg88
I3920
sg89
I3628
sg90
I822
sg91
I816
sg92
I3862
sg93
I3926
sg94
I3877
sg95
I3903
sg96
I1897
sg97
I3924
sg98
I3361
sg99
I1239
sg100
I3909
sg101
I3801
sg102
I0
ss.