(dp1
S'amaVit1'
p2
(dp3
g2
I6591
sS'latCha1'
p4
I1966
sS'criGri1'
p5
I4427
sS'punNye1'
p6
I1355
sS'odoRosDiv1'
p7
I4795
sS'lepWed1'
p8
I4810
sS'papAnu2'
p9
I4700
sS'anoCar2'
p10
I3020
sS'chiLan1'
p11
I2473
sS'loxAfr3'
p12
I4671
sS'rn6'
p13
I4612
sS'eleEdw1'
p14
I4551
sS'oreNil2'
p15
I1350
sS'astMex1'
p16
I1401
sS'eptFus1'
p17
I4538
sS'vicPac2'
p18
I4330
sS'geoFor1'
p19
I4036
sS'oryLat2'
p20
I1248
sS'sorAra2'
p21
I4273
sS'gadMor1'
p22
I1130
sS'eriEur2'
p23
I4282
sS'oryCun2'
p24
I4415
sS'micOch1'
p25
I4525
sS'chlSab2'
p26
I4772
sS'araMac1'
p27
I4437
sS'octDeg1'
p28
I4552
sS'dasNov3'
p29
I3603
sS'taeGut2'
p30
I3841
sS'mayZeb1'
p31
I1354
sS'ficAlb2'
p32
I5061
sS'panHod1'
p33
I3986
sS'gorGor3'
p34
I4755
sS'pteVam1'
p35
I4419
sS'galGal4'
p36
I4946
sS'pelSin1'
p37
I3241
sS'xipMac1'
p38
I1299
sS'anaPla1'
p39
I4397
sS'ornAna1'
p40
I386
sS'colLiv1'
p41
I3505
sS'sarHar1'
p42
I2845
sS'takFla1'
p43
I1556
sS'equCab2'
p44
I4680
sS'myoLuc2'
p45
I4566
sS'rheMac3'
p46
I4752
sS'hg38'
p47
I4800
sS'camFer1'
p48
I3239
sS'cerSim1'
p49
I4708
sS'ailMel1'
p50
I4738
sS'macFas5'
p51
I4774
sS'calJac3'
p52
I4740
sS'melUnd1'
p53
I5094
sS'neoBri1'
p54
I1366
sS'conCri1'
p55
I4117
sS'monDom5'
p56
I2829
sS'pteAle1'
p57
I4668
sS'oviAri3'
p58
I4073
sS'danRer10'
p59
I1410
sS'saiBol1'
p60
I4757
sS'jacJac1'
p61
I4402
sS'susScr3'
p62
I4691
sS'canFam3'
p63
I4742
sS'echTel2'
p64
I3814
sS'capHir1'
p65
I4039
sS'ponAbe2'
p66
I4766
sS'pseHum1'
p67
I5129
sS'hapBur1'
p68
I1481
sS'mm10'
p69
I4548
sS'xenTro7'
p70
I1126
sS'falPer1'
p71
I5090
sS'fr3'
p72
I1668
sS'macEug2'
p73
I2720
sS'gasAcu1'
p74
I1503
sS'nomLeu3'
p75
I4483
sS'zonAlb1'
p76
I4798
sS'tupChi1'
p77
I4514
sS'chrAsi1'
p78
I4701
sS'cavPor3'
p79
I4617
sS'panTro4'
p80
I4681
sS'cheMyd1'
p81
I4500
sS'triMan1'
p82
I4637
sS'lepOcu1'
p83
I1515
sS'apaSpi1'
p84
I2649
sS'mesAur1'
p85
I4597
sS'tetNig2'
p86
I1600
sS'bosTau8'
p87
I4585
sS'musFur1'
p88
I4758
sS'ochPri3'
p89
I4011
sS'melGal1'
p90
I4350
sS'petMar2'
p91
I228
sS'oryAfe1'
p92
I4334
sS'hetGla2'
p93
I4685
sS'turTru2'
p94
I4664
sS'speTri2'
p95
I4678
sS'allMis1'
p96
I4785
sS'otoGar3'
p97
I4706
sS'myoDav1'
p98
I3963
sS'falChe1'
p99
I4627
sS'felCat8'
p100
I4669
sS'orcOrc1'
p101
I4670
sS'chrPic2'
p102
I4831
ssg4
(dp103
g2
I1966
sg4
I4167
sg5
I2453
sg6
I1568
sg7
I2930
sg8
I2929
sg9
I2717
sg10
I2294
sg11
I1881
sg12
I2815
sg13
I2906
sg14
I2802
sg15
I1555
sg16
I1608
sg17
I2905
sg18
I2774
sg19
I1953
sg20
I1503
sg21
I2260
sg22
I1391
sg23
I2765
sg24
I2659
sg25
I2785
sg26
I2732
sg27
I1683
sg28
I2794
sg29
I2030
sg30
I2181
sg31
I1565
sg32
I2613
sg33
I2473
sg34
I2800
sg35
I2875
sg36
I2541
sg37
I2221
sg38
I1630
sg39
I2222
sg40
I276
sg41
I1656
sg42
I2372
sg43
I1656
sg44
I2925
sg45
I2900
sg46
I2733
sg47
I2989
sg48
I1950
sg49
I2933
sg50
I2920
sg51
I2753
sg52
I2791
sg53
I2128
sg54
I1549
sg55
I2312
sg56
I1939
sg57
I2914
sg58
I2250
sg59
I2149
sg60
I2959
sg61
I2669
sg62
I2544
sg63
I2941
sg64
I2712
sg65
I2266
sg66
I2971
sg67
I2516
sg68
I1648
sg69
I2955
sg70
I1253
sg71
I2299
sg72
I2140
sg73
I2372
sg74
I2015
sg75
I2860
sg76
I2587
sg77
I2697
sg78
I2730
sg79
I2863
sg80
I2869
sg81
I2304
sg82
I2812
sg83
I2033
sg84
I1801
sg85
I2812
sg86
I2133
sg87
I2681
sg88
I2915
sg89
I2641
sg90
I2278
sg91
I240
sg92
I2810
sg93
I2776
sg94
I2686
sg95
I2785
sg96
I2662
sg97
I2755
sg98
I2546
sg99
I2148
sg100
I2909
sg101
I2684
sg102
I2493
ssg5
(dp104
g2
I4427
sg4
I2453
sg5
I32372
sg6
I1822
sg7
I22433
sg8
I22265
sg9
I23945
sg10
I3161
sg11
I15135
sg12
I22312
sg13
I24639
sg14
I20174
sg15
I1836
sg16
I1811
sg17
I22506
sg18
I22926
sg19
I5132
sg20
I1892
sg21
I16154
sg22
I1414
sg23
I18357
sg24
I19938
sg25
I24619
sg26
I24323
sg27
I4626
sg28
I18441
sg29
I17226
sg30
I6992
sg31
I1820
sg32
I7177
sg33
I21089
sg34
I24485
sg35
I20255
sg36
I7520
sg37
I3789
sg38
I1633
sg39
I6273
sg40
I706
sg41
I3661
sg42
I7816
sg43
I2148
sg44
I22221
sg45
I21372
sg46
I24337
sg47
I24598
sg48
I21654
sg49
I23330
sg50
I22559
sg51
I23323
sg52
I22001
sg53
I5986
sg54
I1847
sg55
I18951
sg56
I7509
sg57
I23348
sg58
I19948
sg59
I1847
sg60
I22460
sg61
I21303
sg62
I22451
sg63
I22106
sg64
I17652
sg65
I20624
sg66
I23980
sg67
I7359
sg68
I1802
sg69
I24821
sg70
I1871
sg71
I8519
sg72
I2709
sg73
I4305
sg74
I2142
sg75
I23522
sg76
I6955
sg77
I22175
sg78
I20920
sg79
I22515
sg80
I24437
sg81
I6194
sg82
I22887
sg83
I2472
sg84
I2998
sg85
I26051
sg86
I2377
sg87
I22088
sg88
I21705
sg89
I17438
sg90
I6938
sg91
I273
sg92
I22120
sg93
I23738
sg94
I21441
sg95
I24330
sg96
I8636
sg97
I23463
sg98
I21327
sg99
I7387
sg100
I21868
sg101
I23002
sg102
I6607
ssg6
(dp105
g2
I1355
sg4
I1568
sg5
I1822
sg6
I3123
sg7
I2112
sg8
I2112
sg9
I2026
sg10
I1616
sg11
I1613
sg12
I2103
sg13
I2099
sg14
I2082
sg15
I3005
sg16
I1685
sg17
I2104
sg18
I2125
sg19
I1263
sg20
I1985
sg21
I1979
sg22
I1597
sg23
I2085
sg24
I2087
sg25
I2104
sg26
I2122
sg27
I1222
sg28
I2070
sg29
I1758
sg30
I1346
sg31
I3112
sg32
I1965
sg33
I2047
sg34
I2118
sg35
I2076
sg36
I2006
sg37
I1723
sg38
I2015
sg39
I1857
sg40
I261
sg41
I1244
sg42
I1758
sg43
I1867
sg44
I2108
sg45
I2074
sg46
I2102
sg47
I2122
sg48
I1492
sg49
I2108
sg50
I2087
sg51
I2119
sg52
I2120
sg53
I1716
sg54
I3001
sg55
I2017
sg56
I1674
sg57
I2094
sg58
I1734
sg59
I1807
sg60
I2116
sg61
I2048
sg62
I2097
sg63
I2085
sg64
I2051
sg65
I1954
sg66
I2119
sg67
I1963
sg68
I2837
sg69
I2065
sg70
I1212
sg71
I1692
sg72
I1957
sg73
I1984
sg74
I2125
sg75
I2120
sg76
I1997
sg77
I1979
sg78
I2124
sg79
I2104
sg80
I2083
sg81
I1766
sg82
I2093
sg83
I1818
sg84
I1245
sg85
I2085
sg86
I2223
sg87
I2101
sg88
I2107
sg89
I2072
sg90
I1691
sg91
I239
sg92
I2096
sg93
I2114
sg94
I2107
sg95
I2107
sg96
I1994
sg97
I2106
sg98
I1782
sg99
I1676
sg100
I2110
sg101
I2106
sg102
I1959
ssg7
(dp106
g2
I4795
sg4
I2930
sg5
I22433
sg6
I2112
sg7
I35400
sg8
I33495
sg9
I27791
sg10
I3505
sg11
I16503
sg12
I26555
sg13
I22893
sg14
I23659
sg15
I2123
sg16
I1969
sg17
I28124
sg18
I29789
sg19
I5696
sg20
I2113
sg21
I18892
sg22
I1605
sg23
I21646
sg24
I21394
sg25
I21983
sg26
I28937
sg27
I4850
sg28
I20659
sg29
I20214
sg30
I7539
sg31
I2108
sg32
I7853
sg33
I26766
sg34
I29280
sg35
I25965
sg36
I8467
sg37
I4032
sg38
I1864
sg39
I6712
sg40
I735
sg41
I4172
sg42
I9014
sg43
I2439
sg44
I28800
sg45
I27156
sg46
I29025
sg47
I29566
sg48
I28417
sg49
I30402
sg50
I32384
sg51
I27349
sg52
I26229
sg53
I6453
sg54
I2124
sg55
I22822
sg56
I8331
sg57
I29909
sg58
I25389
sg59
I2317
sg60
I26876
sg61
I21752
sg62
I27842
sg63
I31206
sg64
I21195
sg65
I26208
sg66
I28905
sg67
I7940
sg68
I2049
sg69
I23638
sg70
I1724
sg71
I9057
sg72
I3257
sg73
I4630
sg74
I2629
sg75
I27494
sg76
I7525
sg77
I24956
sg78
I25020
sg79
I24917
sg80
I29308
sg81
I6574
sg82
I28104
sg83
I2942
sg84
I3050
sg85
I22467
sg86
I2911
sg87
I27605
sg88
I30647
sg89
I18977
sg90
I7291
sg91
I271
sg92
I27023
sg93
I26094
sg94
I27422
sg95
I26800
sg96
I9685
sg97
I27822
sg98
I26907
sg99
I7882
sg100
I30430
sg101
I29393
sg102
I7769
ssg8
(dp107
g2
I4810
sg4
I2929
sg5
I22265
sg6
I2112
sg7
I33495
sg8
I35083
sg9
I27710
sg10
I3516
sg11
I16424
sg12
I26405
sg13
I22748
sg14
I23455
sg15
I2121
sg16
I1973
sg17
I27713
sg18
I29392
sg19
I5673
sg20
I2140
sg21
I18829
sg22
I1611
sg23
I21548
sg24
I21127
sg25
I21690
sg26
I28675
sg27
I4855
sg28
I20553
sg29
I19854
sg30
I7490
sg31
I2108
sg32
I7707
sg33
I26424
sg34
I29045
sg35
I25705
sg36
I8441
sg37
I4048
sg38
I1869
sg39
I6682
sg40
I734
sg41
I4131
sg42
I8863
sg43
I2450
sg44
I28520
sg45
I26849
sg46
I28716
sg47
I29331
sg48
I28081
sg49
I30077
sg50
I32071
sg51
I27070
sg52
I25945
sg53
I6424
sg54
I2121
sg55
I22823
sg56
I8134
sg57
I29641
sg58
I25048
sg59
I2320
sg60
I26595
sg61
I21473
sg62
I27677
sg63
I30855
sg64
I21049
sg65
I25831
sg66
I28633
sg67
I7787
sg68
I2072
sg69
I23489
sg70
I1729
sg71
I8968
sg72
I3269
sg73
I4688
sg74
I2637
sg75
I27269
sg76
I7395
sg77
I24869
sg78
I24904
sg79
I24853
sg80
I29072
sg81
I6523
sg82
I27853
sg83
I2948
sg84
I3103
sg85
I22321
sg86
I2917
sg87
I27488
sg88
I30377
sg89
I18896
sg90
I7216
sg91
I271
sg92
I26945
sg93
I25991
sg94
I27131
sg95
I26476
sg96
I9665
sg97
I27798
sg98
I26669
sg99
I7753
sg100
I30036
sg101
I28978
sg102
I7792
ssg9
(dp108
g2
I4700
sg4
I2717
sg5
I23945
sg6
I2026
sg7
I27791
sg8
I27710
sg9
I42247
sg10
I3449
sg11
I17742
sg12
I27776
sg13
I23654
sg14
I24973
sg15
I2041
sg16
I1900
sg17
I27100
sg18
I29033
sg19
I5871
sg20
I2046
sg21
I18444
sg22
I1541
sg23
I20875
sg24
I22273
sg25
I22499
sg26
I38654
sg27
I4887
sg28
I21343
sg29
I20648
sg30
I7302
sg31
I2025
sg32
I7947
sg33
I26053
sg34
I36966
sg35
I25700
sg36
I8654
sg37
I4025
sg38
I1763
sg39
I6844
sg40
I741
sg41
I4221
sg42
I9060
sg43
I2440
sg44
I28293
sg45
I26758
sg46
I38501
sg47
I37527
sg48
I27880
sg49
I29770
sg50
I27915
sg51
I35221
sg52
I31733
sg53
I6446
sg54
I2036
sg55
I22867
sg56
I8180
sg57
I29302
sg58
I24726
sg59
I1982
sg60
I30978
sg61
I22761
sg62
I27802
sg63
I27196
sg64
I22124
sg65
I25387
sg66
I36106
sg67
I8041
sg68
I1981
sg69
I24212
sg70
I1811
sg71
I9068
sg72
I3062
sg73
I4538
sg74
I2335
sg75
I34255
sg76
I7617
sg77
I28134
sg78
I25932
sg79
I26515
sg80
I37547
sg81
I6629
sg82
I28500
sg83
I2988
sg84
I3052
sg85
I23251
sg86
I2566
sg87
I27283
sg88
I26760
sg89
I19573
sg90
I7202
sg91
I273
sg92
I27545
sg93
I27841
sg94
I27176
sg95
I28111
sg96
I9640
sg97
I30203
sg98
I26598
sg99
I7893
sg100
I27057
sg101
I28986
sg102
I7838
ssg10
(dp109
g2
I3020
sg4
I2294
sg5
I3161
sg6
I1616
sg7
I3505
sg8
I3516
sg9
I3449
sg10
I4868
sg11
I2304
sg12
I3457
sg13
I3415
sg14
I3379
sg15
I1622
sg16
I1829
sg17
I3360
sg18
I3224
sg19
I2534
sg20
I1522
sg21
I3003
sg22
I1430
sg23
I3382
sg24
I3266
sg25
I3417
sg26
I3546
sg27
I2719
sg28
I3370
sg29
I2837
sg30
I2731
sg31
I1614
sg32
I3599
sg33
I3151
sg34
I3524
sg35
I3402
sg36
I3725
sg37
I3022
sg38
I1579
sg39
I3496
sg40
I364
sg41
I2431
sg42
I2785
sg43
I1705
sg44
I3447
sg45
I3415
sg46
I3525
sg47
I3543
sg48
I2368
sg49
I3462
sg50
I3491
sg51
I3549
sg52
I3520
sg53
I3342
sg54
I1618
sg55
I3127
sg56
I2548
sg57
I3448
sg58
I2938
sg59
I1704
sg60
I3511
sg61
I3345
sg62
I3483
sg63
I3470
sg64
I3217
sg65
I2954
sg66
I3520
sg67
I3559
sg68
I1707
sg69
I3360
sg70
I1365
sg71
I3103
sg72
I1991
sg73
I2924
sg74
I1721
sg75
I3286
sg76
I3433
sg77
I3329
sg78
I3446
sg79
I3468
sg80
I3434
sg81
I3239
sg82
I3445
sg83
I2007
sg84
I2294
sg85
I3387
sg86
I1857
sg87
I3424
sg88
I3507
sg89
I3161
sg90
I3457
sg91
I232
sg92
I3450
sg93
I3457
sg94
I3468
sg95
I3466
sg96
I3741
sg97
I3457
sg98
I2944
sg99
I3063
sg100
I3496
sg101
I3478
sg102
I3595
ssg11
(dp110
g2
I2473
sg4
I1881
sg5
I15135
sg6
I1613
sg7
I16503
sg8
I16424
sg9
I17742
sg10
I2304
sg11
I24990
sg12
I16606
sg13
I15157
sg14
I15247
sg15
I1622
sg16
I1446
sg17
I16697
sg18
I17253
sg19
I3580
sg20
I1276
sg21
I11287
sg22
I1128
sg23
I13622
sg24
I14593
sg25
I14381
sg26
I18035
sg27
I3090
sg28
I16544
sg29
I12685
sg30
I3557
sg31
I1612
sg32
I4358
sg33
I16081
sg34
I18432
sg35
I16775
sg36
I5015
sg37
I2609
sg38
I1292
sg39
I3833
sg40
I684
sg41
I3350
sg42
I6711
sg43
I1795
sg44
I17609
sg45
I16956
sg46
I18085
sg47
I18409
sg48
I16894
sg49
I17861
sg50
I16696
sg51
I16856
sg52
I15847
sg53
I3644
sg54
I1624
sg55
I13204
sg56
I4489
sg57
I17282
sg58
I15703
sg59
I1483
sg60
I15560
sg61
I13993
sg62
I16221
sg63
I16255
sg64
I15480
sg65
I15598
sg66
I18396
sg67
I4404
sg68
I1419
sg69
I15244
sg70
I1620
sg71
I4058
sg72
I2315
sg73
I3310
sg74
I1586
sg75
I16573
sg76
I3689
sg77
I15961
sg78
I15989
sg79
I19528
sg80
I18389
sg81
I3902
sg82
I17386
sg83
I2418
sg84
I2186
sg85
I15295
sg86
I2084
sg87
I16197
sg88
I15649
sg89
I13006
sg90
I4794
sg91
I284
sg92
I16604
sg93
I19865
sg94
I17019
sg95
I18192
sg96
I5356
sg97
I17421
sg98
I16533
sg99
I4245
sg100
I16366
sg101
I17076
sg102
I3862
ssg12
(dp111
g2
I4671
sg4
I2815
sg5
I22312
sg6
I2103
sg7
I26555
sg8
I26405
sg9
I27776
sg10
I3457
sg11
I16606
sg12
I36006
sg13
I22347
sg14
I25705
sg15
I2108
sg16
I1951
sg17
I26397
sg18
I27802
sg19
I5704
sg20
I2095
sg21
I17792
sg22
I1593
sg23
I20222
sg24
I21006
sg25
I21073
sg26
I28641
sg27
I4782
sg28
I20257
sg29
I20960
sg30
I7410
sg31
I2101
sg32
I7721
sg33
I24905
sg34
I28958
sg35
I25741
sg36
I8373
sg37
I3969
sg38
I1856
sg39
I6600
sg40
I709
sg41
I4182
sg42
I8756
sg43
I2486
sg44
I27377
sg45
I25800
sg46
I28669
sg47
I29169
sg48
I26585
sg49
I28952
sg50
I26620
sg51
I27086
sg52
I25467
sg53
I6324
sg54
I2108
sg55
I21373
sg56
I7997
sg57
I28467
sg58
I23481
sg59
I2234
sg60
I25714
sg61
I21030
sg62
I26427
sg63
I26172
sg64
I23136
sg65
I24235
sg66
I29066
sg67
I7796
sg68
I2036
sg69
I22846
sg70
I1903
sg71
I8868
sg72
I3261
sg73
I4334
sg74
I2593
sg75
I27390
sg76
I7399
sg77
I24865
sg78
I27606
sg79
I24747
sg80
I29063
sg81
I6506
sg82
I32039
sg83
I2918
sg84
I3038
sg85
I22117
sg86
I2839
sg87
I26010
sg88
I25099
sg89
I18632
sg90
I7134
sg91
I271
sg92
I29704
sg93
I25572
sg94
I25864
sg95
I26363
sg96
I9570
sg97
I27197
sg98
I25687
sg99
I7719
sg100
I25766
sg101
I27535
sg102
I7524
ssg13
(dp112
g2
I4612
sg4
I2906
sg5
I24639
sg6
I2099
sg7
I22893
sg8
I22748
sg9
I23654
sg10
I3415
sg11
I15157
sg12
I22347
sg13
I31965
sg14
I19994
sg15
I2109
sg16
I1944
sg17
I22607
sg18
I23174
sg19
I5441
sg20
I2138
sg21
I16586
sg22
I1616
sg23
I18181
sg24
I20534
sg25
I24199
sg26
I24164
sg27
I4764
sg28
I19789
sg29
I17221
sg30
I7202
sg31
I2097
sg32
I7607
sg33
I21111
sg34
I24353
sg35
I20846
sg36
I8100
sg37
I3919
sg38
I1871
sg39
I6512
sg40
I721
sg41
I3650
sg42
I8088
sg43
I2514
sg44
I22482
sg45
I21674
sg46
I24177
sg47
I24569
sg48
I21920
sg49
I23660
sg50
I22871
sg51
I24053
sg52
I21318
sg53
I6208
sg54
I2115
sg55
I18399
sg56
I7923
sg57
I23511
sg58
I19827
sg59
I2299
sg60
I23315
sg61
I21678
sg62
I22412
sg63
I22368
sg64
I17899
sg65
I20648
sg66
I24235
sg67
I7663
sg68
I2066
sg69
I27800
sg70
I1869
sg71
I8425
sg72
I3285
sg73
I4607
sg74
I2579
sg75
I23839
sg76
I7166
sg77
I21827
sg78
I21464
sg79
I23129
sg80
I24384
sg81
I6414
sg82
I23011
sg83
I2885
sg84
I2948
sg85
I24204
sg86
I2867
sg87
I22133
sg88
I22120
sg89
I18039
sg90
I7067
sg91
I280
sg92
I22384
sg93
I23905
sg94
I21524
sg95
I24437
sg96
I8885
sg97
I23416
sg98
I21638
sg99
I7317
sg100
I22287
sg101
I23085
sg102
I7079
ssg14
(dp113
g2
I4551
sg4
I2802
sg5
I20174
sg6
I2082
sg7
I23659
sg8
I23455
sg9
I24973
sg10
I3379
sg11
I15247
sg12
I25705
sg13
I19994
sg14
I33904
sg15
I2099
sg16
I1931
sg17
I22740
sg18
I24292
sg19
I5583
sg20
I2034
sg21
I16731
sg22
I1601
sg23
I19087
sg24
I19099
sg25
I19369
sg26
I24702
sg27
I4624
sg28
I18341
sg29
I18340
sg30
I7142
sg31
I2080
sg32
I7426
sg33
I21532
sg34
I24985
sg35
I21383
sg36
I7770
sg37
I3949
sg38
I1831
sg39
I6530
sg40
I676
sg41
I4125
sg42
I8552
sg43
I2447
sg44
I23601
sg45
I22508
sg46
I24738
sg47
I25059
sg48
I23041
sg49
I24830
sg50
I23611
sg51
I23392
sg52
I22604
sg53
I6149
sg54
I2101
sg55
I19561
sg56
I7638
sg57
I24535
sg58
I20188
sg59
I2196
sg60
I22878
sg61
I19545
sg62
I23295
sg63
I23151
sg64
I20610
sg65
I21154
sg66
I24699
sg67
I7680
sg68
I2018
sg69
I20274
sg70
I1717
sg71
I8511
sg72
I3154
sg73
I4494
sg74
I2502
sg75
I23582
sg76
I7270
sg77
I22544
sg78
I24524
sg79
I22199
sg80
I25052
sg81
I6391
sg82
I26653
sg83
I2944
sg84
I3002
sg85
I20276
sg86
I2746
sg87
I22513
sg88
I23439
sg89
I16754
sg90
I6751
sg91
I278
sg92
I25621
sg93
I22837
sg94
I22534
sg95
I23233
sg96
I9055
sg97
I23855
sg98
I22350
sg99
I7424
sg100
I22865
sg101
I24198
sg102
I7101
ssg15
(dp114
g2
I1350
sg4
I1555
sg5
I1836
sg6
I3005
sg7
I2123
sg8
I2121
sg9
I2041
sg10
I1622
sg11
I1622
sg12
I2108
sg13
I2109
sg14
I2099
sg15
I3110
sg16
I1688
sg17
I2109
sg18
I2099
sg19
I1261
sg20
I1995
sg21
I2001
sg22
I1606
sg23
I2061
sg24
I2076
sg25
I2118
sg26
I2130
sg27
I1202
sg28
I2078
sg29
I1779
sg30
I1339
sg31
I3002
sg32
I1963
sg33
I2051
sg34
I2126
sg35
I2082
sg36
I2004
sg37
I1718
sg38
I2042
sg39
I1867
sg40
I248
sg41
I1239
sg42
I1742
sg43
I1877
sg44
I2115
sg45
I2080
sg46
I2110
sg47
I2133
sg48
I1499
sg49
I2117
sg50
I2097
sg51
I2127
sg52
I2125
sg53
I1713
sg54
I3029
sg55
I2040
sg56
I1656
sg57
I2099
sg58
I1734
sg59
I1809
sg60
I2124
sg61
I2030
sg62
I2102
sg63
I2092
sg64
I2065
sg65
I1957
sg66
I2128
sg67
I1957
sg68
I2734
sg69
I2075
sg70
I1230
sg71
I1688
sg72
I1953
sg73
I1966
sg74
I2151
sg75
I2131
sg76
I1995
sg77
I2007
sg78
I2129
sg79
I2112
sg80
I2092
sg81
I1737
sg82
I2102
sg83
I1838
sg84
I1219
sg85
I2099
sg86
I2229
sg87
I2104
sg88
I2115
sg89
I2060
sg90
I1691
sg91
I235
sg92
I2105
sg93
I2115
sg94
I2110
sg95
I2115
sg96
I1972
sg97
I2110
sg98
I1787
sg99
I1673
sg100
I2116
sg101
I2109
sg102
I1955
ssg16
(dp115
g2
I1401
sg4
I1608
sg5
I1811
sg6
I1685
sg7
I1969
sg8
I1973
sg9
I1900
sg10
I1829
sg11
I1446
sg12
I1951
sg13
I1944
sg14
I1931
sg15
I1688
sg16
I2904
sg17
I1974
sg18
I1958
sg19
I1175
sg20
I1668
sg21
I1652
sg22
I1405
sg23
I1948
sg24
I1830
sg25
I1945
sg26
I1987
sg27
I1286
sg28
I1963
sg29
I1416
sg30
I1423
sg31
I1685
sg32
I1916
sg33
I1845
sg34
I1987
sg35
I1910
sg36
I1974
sg37
I1502
sg38
I1626
sg39
I1784
sg40
I296
sg41
I1017
sg42
I1719
sg43
I1788
sg44
I1954
sg45
I1973
sg46
I1971
sg47
I1995
sg48
I1394
sg49
I1976
sg50
I1956
sg51
I1988
sg52
I1984
sg53
I1761
sg54
I1664
sg55
I1681
sg56
I1417
sg57
I1924
sg58
I1601
sg59
I1938
sg60
I1991
sg61
I1893
sg62
I1984
sg63
I1953
sg64
I1824
sg65
I1841
sg66
I1983
sg67
I1923
sg68
I1672
sg69
I1904
sg70
I1210
sg71
I1544
sg72
I2081
sg73
I1732
sg74
I1687
sg75
I1989
sg76
I1739
sg77
I1890
sg78
I1954
sg79
I1965
sg80
I1957
sg81
I1654
sg82
I1948
sg83
I2008
sg84
I1055
sg85
I1950
sg86
I1927
sg87
I1953
sg88
I1966
sg89
I1784
sg90
I1813
sg91
I229
sg92
I1939
sg93
I1946
sg94
I1959
sg95
I1983
sg96
I1966
sg97
I1968
sg98
I1688
sg99
I1513
sg100
I1971
sg101
I1959
sg102
I1831
ssg17
(dp116
g2
I4538
sg4
I2905
sg5
I22506
sg6
I2104
sg7
I28124
sg8
I27713
sg9
I27100
sg10
I3360
sg11
I16697
sg12
I26397
sg13
I22607
sg14
I22740
sg15
I2109
sg16
I1974
sg17
I35741
sg18
I28774
sg19
I5508
sg20
I2099
sg21
I18397
sg22
I1620
sg23
I21171
sg24
I21566
sg25
I21551
sg26
I28179
sg27
I4574
sg28
I20494
sg29
I20079
sg30
I7216
sg31
I2103
sg32
I7553
sg33
I26470
sg34
I28730
sg35
I26485
sg36
I8154
sg37
I4050
sg38
I1862
sg39
I6446
sg40
I739
sg41
I4005
sg42
I8677
sg43
I2363
sg44
I28497
sg45
I30477
sg46
I28224
sg47
I28982
sg48
I27573
sg49
I29828
sg50
I28172
sg51
I26525
sg52
I25081
sg53
I6129
sg54
I2114
sg55
I22488
sg56
I8137
sg57
I30076
sg58
I24940
sg59
I2333
sg60
I25313
sg61
I21470
sg62
I27180
sg63
I27666
sg64
I20778
sg65
I25735
sg66
I28703
sg67
I7606
sg68
I2070
sg69
I23222
sg70
I1887
sg71
I8770
sg72
I3223
sg73
I4626
sg74
I2619
sg75
I26895
sg76
I7343
sg77
I24590
sg78
I24597
sg79
I24605
sg80
I28710
sg81
I6274
sg82
I27294
sg83
I2797
sg84
I3044
sg85
I22233
sg86
I2887
sg87
I27438
sg88
I26518
sg89
I19185
sg90
I7052
sg91
I271
sg92
I26473
sg93
I25666
sg94
I27184
sg95
I26375
sg96
I9342
sg97
I27105
sg98
I30494
sg99
I7615
sg100
I27360
sg101
I28884
sg102
I7404
ssg18
(dp117
g2
I4330
sg4
I2774
sg5
I22926
sg6
I2125
sg7
I29789
sg8
I29392
sg9
I29033
sg10
I3224
sg11
I17253
sg12
I27802
sg13
I23174
sg14
I24292
sg15
I2099
sg16
I1958
sg17
I28774
sg18
I37593
sg19
I5326
sg20
I2103
sg21
I18656
sg22
I1606
sg23
I21441
sg24
I21643
sg25
I21980
sg26
I30329
sg27
I4470
sg28
I20675
sg29
I21198
sg30
I7251
sg31
I2125
sg32
I7469
sg33
I28327
sg34
I30759
sg35
I27564
sg36
I8069
sg37
I3734
sg38
I1854
sg39
I6333
sg40
I751
sg41
I3855
sg42
I8850
sg43
I2517
sg44
I30284
sg45
I28498
sg46
I30466
sg47
I31067
sg48
I34749
sg49
I31790
sg50
I29612
sg51
I28734
sg52
I26805
sg53
I6091
sg54
I2105
sg55
I23408
sg56
I8086
sg57
I31335
sg58
I26877
sg59
I2334
sg60
I26998
sg61
I22099
sg62
I30517
sg63
I28983
sg64
I22085
sg65
I27859
sg66
I30413
sg67
I7619
sg68
I2070
sg69
I23850
sg70
I1889
sg71
I8651
sg72
I3398
sg73
I4450
sg74
I2617
sg75
I28952
sg76
I7143
sg77
I25635
sg78
I26032
sg79
I25706
sg80
I30822
sg81
I6323
sg82
I29300
sg83
I2896
sg84
I2865
sg85
I22782
sg86
I2943
sg87
I29205
sg88
I27771
sg89
I19108
sg90
I6951
sg91
I279
sg92
I27930
sg93
I26863
sg94
I30120
sg95
I27779
sg96
I9436
sg97
I28855
sg98
I28445
sg99
I7482
sg100
I28417
sg101
I31982
sg102
I7328
ssg19
(dp118
g2
I4036
sg4
I1953
sg5
I5132
sg6
I1263
sg7
I5696
sg8
I5673
sg9
I5871
sg10
I2534
sg11
I3580
sg12
I5704
sg13
I5441
sg14
I5583
sg15
I1261
sg16
I1175
sg17
I5508
sg18
I5326
sg19
I8495
sg20
I1259
sg21
I4685
sg22
I842
sg23
I4759
sg24
I5363
sg25
I5354
sg26
I5825
sg27
I4139
sg28
I5604
sg29
I4343
sg30
I5465
sg31
I1262
sg32
I5088
sg33
I4799
sg34
I5840
sg35
I5365
sg36
I5769
sg37
I3396
sg38
I1080
sg39
I4034
sg40
I455
sg41
I4052
sg42
I3286
sg43
I1304
sg44
I5711
sg45
I5463
sg46
I5802
sg47
I5856
sg48
I4584
sg49
I5705
sg50
I5700
sg51
I5824
sg52
I5728
sg53
I4455
sg54
I1267
sg55
I4666
sg56
I3072
sg57
I5710
sg58
I5409
sg59
I1353
sg60
I5791
sg61
I5373
sg62
I5492
sg63
I5688
sg64
I4648
sg65
I5149
sg66
I5821
sg67
I5326
sg68
I1258
sg69
I5441
sg70
I989
sg71
I5450
sg72
I1631
sg73
I2673
sg74
I1464
sg75
I5613
sg76
I5999
sg77
I5636
sg78
I5600
sg79
I5594
sg80
I5770
sg81
I4368
sg82
I5661
sg83
I1466
sg84
I3080
sg85
I5351
sg86
I1694
sg87
I5542
sg88
I5719
sg89
I5113
sg90
I4549
sg91
I237
sg92
I5584
sg93
I5582
sg94
I5689
sg95
I5659
sg96
I4985
sg97
I5639
sg98
I5366
sg99
I5050
sg100
I5707
sg101
I5691
sg102
I4708
ssg20
(dp119
g2
I1248
sg4
I1503
sg5
I1892
sg6
I1985
sg7
I2113
sg8
I2140
sg9
I2046
sg10
I1522
sg11
I1276
sg12
I2095
sg13
I2138
sg14
I2034
sg15
I1995
sg16
I1668
sg17
I2099
sg18
I2103
sg19
I1259
sg20
I3113
sg21
I1957
sg22
I1510
sg23
I1996
sg24
I2102
sg25
I2101
sg26
I2147
sg27
I919
sg28
I2095
sg29
I1705
sg30
I1377
sg31
I1988
sg32
I1640
sg33
I2042
sg34
I2149
sg35
I2097
sg36
I1830
sg37
I1411
sg38
I1967
sg39
I1542
sg40
I255
sg41
I916
sg42
I1601
sg43
I1833
sg44
I2133
sg45
I2136
sg46
I2131
sg47
I2157
sg48
I1561
sg49
I2147
sg50
I2125
sg51
I2147
sg52
I2133
sg53
I1435
sg54
I1978
sg55
I1992
sg56
I1512
sg57
I2118
sg58
I1767
sg59
I1751
sg60
I2134
sg61
I2034
sg62
I2132
sg63
I2120
sg64
I1950
sg65
I1993
sg66
I2142
sg67
I1641
sg68
I1973
sg69
I2107
sg70
I1120
sg71
I1518
sg72
I1868
sg73
I1693
sg74
I1936
sg75
I2150
sg76
I1678
sg77
I2048
sg78
I2111
sg79
I2124
sg80
I2131
sg81
I1630
sg82
I2076
sg83
I1756
sg84
I906
sg85
I2138
sg86
I1851
sg87
I2127
sg88
I2126
sg89
I2085
sg90
I1418
sg91
I241
sg92
I2120
sg93
I2132
sg94
I2132
sg95
I2134
sg96
I1735
sg97
I2151
sg98
I1811
sg99
I1370
sg100
I2126
sg101
I2132
sg102
I1658
ssg21
(dp120
g2
I4273
sg4
I2260
sg5
I16154
sg6
I1979
sg7
I18892
sg8
I18829
sg9
I18444
sg10
I3003
sg11
I11287
sg12
I17792
sg13
I16586
sg14
I16731
sg15
I2001
sg16
I1652
sg17
I18397
sg18
I18656
sg19
I4685
sg20
I1957
sg21
I25068
sg22
I1511
sg23
I16956
sg24
I15486
sg25
I15947
sg26
I18702
sg27
I3862
sg28
I15864
sg29
I14650
sg30
I5996
sg31
I1979
sg32
I6575
sg33
I17134
sg34
I18841
sg35
I16341
sg36
I6601
sg37
I3726
sg38
I1658
sg39
I5786
sg40
I342
sg41
I3716
sg42
I7193
sg43
I1942
sg44
I17852
sg45
I17321
sg46
I18658
sg47
I18828
sg48
I17350
sg49
I19181
sg50
I18862
sg51
I18327
sg52
I17427
sg53
I5525
sg54
I1983
sg55
I16961
sg56
I7305
sg57
I18841
sg58
I15707
sg59
I1742
sg60
I18209
sg61
I15757
sg62
I18542
sg63
I18607
sg64
I14148
sg65
I16519
sg66
I18842
sg67
I6656
sg68
I1938
sg69
I16791
sg70
I1528
sg71
I7392
sg72
I2109
sg73
I4205
sg74
I1931
sg75
I17990
sg76
I6772
sg77
I17375
sg78
I17309
sg79
I17417
sg80
I18763
sg81
I5778
sg82
I18192
sg83
I2114
sg84
I2703
sg85
I15807
sg86
I2217
sg87
I18192
sg88
I18774
sg89
I15325
sg90
I6078
sg91
I180
sg92
I17802
sg93
I17567
sg94
I17385
sg95
I17939
sg96
I7451
sg97
I18119
sg98
I17214
sg99
I6408
sg100
I18402
sg101
I18972
sg102
I6226
ssg22
(dp121
g2
I1130
sg4
I1391
sg5
I1414
sg6
I1597
sg7
I1605
sg8
I1611
sg9
I1541
sg10
I1430
sg11
I1128
sg12
I1593
sg13
I1616
sg14
I1601
sg15
I1606
sg16
I1405
sg17
I1620
sg18
I1606
sg19
I842
sg20
I1510
sg21
I1511
sg22
I2282
sg23
I1586
sg24
I1612
sg25
I1604
sg26
I1616
sg27
I825
sg28
I1596
sg29
I1230
sg30
I941
sg31
I1598
sg32
I1473
sg33
I1525
sg34
I1620
sg35
I1588
sg36
I1539
sg37
I1286
sg38
I1571
sg39
I1380
sg40
I277
sg41
I773
sg42
I1266
sg43
I1550
sg44
I1606
sg45
I1621
sg46
I1613
sg47
I1618
sg48
I1204
sg49
I1621
sg50
I1605
sg51
I1614
sg52
I1618
sg53
I1293
sg54
I1608
sg55
I1506
sg56
I1287
sg57
I1606
sg58
I1232
sg59
I1582
sg60
I1617
sg61
I1567
sg62
I1608
sg63
I1610
sg64
I1498
sg65
I1462
sg66
I1617
sg67
I1467
sg68
I1613
sg69
I1598
sg70
I1166
sg71
I1279
sg72
I1626
sg73
I1528
sg74
I1705
sg75
I1615
sg76
I1515
sg77
I1520
sg78
I1597
sg79
I1612
sg80
I1553
sg81
I1350
sg82
I1595
sg83
I1546
sg84
I812
sg85
I1608
sg86
I1582
sg87
I1602
sg88
I1610
sg89
I1599
sg90
I1337
sg91
I262
sg92
I1589
sg93
I1606
sg94
I1615
sg95
I1597
sg96
I1524
sg97
I1604
sg98
I1316
sg99
I1254
sg100
I1599
sg101
I1615
sg102
I1503
ssg23
(dp122
g2
I4282
sg4
I2765
sg5
I18357
sg6
I2085
sg7
I21646
sg8
I21548
sg9
I20875
sg10
I3382
sg11
I13622
sg12
I20222
sg13
I18181
sg14
I19087
sg15
I2061
sg16
I1948
sg17
I21171
sg18
I21441
sg19
I4759
sg20
I1996
sg21
I16956
sg22
I1586
sg23
I29312
sg24
I17760
sg25
I18005
sg26
I21239
sg27
I4651
sg28
I16677
sg29
I15589
sg30
I6682
sg31
I2081
sg32
I7291
sg33
I19775
sg34
I21329
sg35
I19257
sg36
I7366
sg37
I3906
sg38
I1814
sg39
I6375
sg40
I672
sg41
I3941
sg42
I7900
sg43
I2290
sg44
I21313
sg45
I20176
sg46
I21166
sg47
I21521
sg48
I20248
sg49
I22195
sg50
I21748
sg51
I19855
sg52
I19631
sg53
I5999
sg54
I2064
sg55
I19751
sg56
I7497
sg57
I21709
sg58
I18742
sg59
I2168
sg60
I19962
sg61
I17216
sg62
I20805
sg63
I21338
sg64
I16784
sg65
I19084
sg66
I21555
sg67
I7250
sg68
I2030
sg69
I18625
sg70
I1665
sg71
I8123
sg72
I3026
sg73
I4481
sg74
I2362
sg75
I20114
sg76
I6760
sg77
I19556
sg78
I19557
sg79
I19636
sg80
I21451
sg81
I6166
sg82
I20888
sg83
I2805
sg84
I2913
sg85
I18029
sg86
I2723
sg87
I20764
sg88
I20841
sg89
I15836
sg90
I6874
sg91
I278
sg92
I20424
sg93
I19866
sg94
I20231
sg95
I20260
sg96
I8496
sg97
I20514
sg98
I20094
sg99
I7023
sg100
I21307
sg101
I21425
sg102
I6499
ssg24
(dp123
g2
I4415
sg4
I2659
sg5
I19938
sg6
I2087
sg7
I21394
sg8
I21127
sg9
I22273
sg10
I3266
sg11
I14593
sg12
I21006
sg13
I20534
sg14
I19099
sg15
I2076
sg16
I1830
sg17
I21566
sg18
I21643
sg19
I5363
sg20
I2102
sg21
I15486
sg22
I1612
sg23
I17760
sg24
I29972
sg25
I19764
sg26
I22687
sg27
I4383
sg28
I18975
sg29
I16798
sg30
I6773
sg31
I2088
sg32
I7291
sg33
I20253
sg34
I22874
sg35
I19317
sg36
I7836
sg37
I3721
sg38
I1829
sg39
I6421
sg40
I739
sg41
I3650
sg42
I7705
sg43
I2254
sg44
I21319
sg45
I20312
sg46
I22648
sg47
I22834
sg48
I20473
sg49
I22461
sg50
I21417
sg51
I21787
sg52
I20601
sg53
I5935
sg54
I2078
sg55
I18192
sg56
I7936
sg57
I22084
sg58
I19165
sg59
I2056
sg60
I20870
sg61
I19464
sg62
I21339
sg63
I21279
sg64
I16796
sg65
I20124
sg66
I22843
sg67
I7427
sg68
I2040
sg69
I20937
sg70
I1861
sg71
I8338
sg72
I2715
sg73
I4558
sg74
I2243
sg75
I21622
sg76
I7126
sg77
I20494
sg78
I20294
sg79
I21702
sg80
I22824
sg81
I6459
sg82
I21451
sg83
I2740
sg84
I2791
sg85
I19618
sg86
I2629
sg87
I21411
sg88
I20670
sg89
I20388
sg90
I6918
sg91
I285
sg92
I21037
sg93
I22265
sg94
I20381
sg95
I22441
sg96
I8307
sg97
I21742
sg98
I20390
sg99
I7184
sg100
I20820
sg101
I22046
sg102
I7217
ssg25
(dp124
g2
I4525
sg4
I2785
sg5
I24619
sg6
I2104
sg7
I21983
sg8
I21690
sg9
I22499
sg10
I3417
sg11
I14381
sg12
I21073
sg13
I24199
sg14
I19369
sg15
I2118
sg16
I1945
sg17
I21551
sg18
I21980
sg19
I5354
sg20
I2101
sg21
I15947
sg22
I1604
sg23
I18005
sg24
I19764
sg25
I29812
sg26
I22859
sg27
I4734
sg28
I18562
sg29
I16717
sg30
I7081
sg31
I2102
sg32
I7546
sg33
I20330
sg34
I23051
sg35
I19381
sg36
I7875
sg37
I3903
sg38
I1873
sg39
I6435
sg40
I711
sg41
I3564
sg42
I7986
sg43
I2397
sg44
I21197
sg45
I20316
sg46
I22884
sg47
I23212
sg48
I20727
sg49
I22311
sg50
I22017
sg51
I22755
sg52
I21197
sg53
I6146
sg54
I2122
sg55
I18272
sg56
I7952
sg57
I22172
sg58
I19095
sg59
I2191
sg60
I22444
sg61
I20580
sg62
I21445
sg63
I21513
sg64
I17089
sg65
I20120
sg66
I22796
sg67
I7588
sg68
I2016
sg69
I24606
sg70
I1859
sg71
I8419
sg72
I3055
sg73
I4648
sg74
I2451
sg75
I22291
sg76
I7174
sg77
I20959
sg78
I20223
sg79
I21992
sg80
I23034
sg81
I6367
sg82
I21864
sg83
I2802
sg84
I2927
sg85
I23832
sg86
I2770
sg87
I21353
sg88
I21271
sg89
I17156
sg90
I6971
sg91
I271
sg92
I21254
sg93
I22457
sg94
I20534
sg95
I23040
sg96
I8600
sg97
I22131
sg98
I20378
sg99
I7274
sg100
I21485
sg101
I22108
sg102
I6724
ssg26
(dp125
g2
I4772
sg4
I2732
sg5
I24323
sg6
I2122
sg7
I28937
sg8
I28675
sg9
I38654
sg10
I3546
sg11
I18035
sg12
I28641
sg13
I24164
sg14
I24702
sg15
I2130
sg16
I1987
sg17
I28179
sg18
I30329
sg19
I5825
sg20
I2147
sg21
I18702
sg22
I1616
sg23
I21239
sg24
I22687
sg25
I22859
sg26
I42481
sg27
I4879
sg28
I21621
sg29
I21606
sg30
I7429
sg31
I2121
sg32
I7878
sg33
I27087
sg34
I39169
sg35
I26927
sg36
I8642
sg37
I4116
sg38
I1874
sg39
I6783
sg40
I749
sg41
I4216
sg42
I9177
sg43
I2552
sg44
I29718
sg45
I27882
sg46
I41175
sg47
I39979
sg48
I29048
sg49
I31041
sg50
I28937
sg51
I38043
sg52
I33189
sg53
I6508
sg54
I2133
sg55
I23455
sg56
I8412
sg57
I30626
sg58
I25743
sg59
I2078
sg60
I32437
sg61
I23425
sg62
I28766
sg63
I28272
sg64
I22390
sg65
I26384
sg66
I38278
sg67
I7946
sg68
I2080
sg69
I24818
sg70
I1913
sg71
I9052
sg72
I3173
sg73
I4763
sg74
I2477
sg75
I36259
sg76
I7579
sg77
I27641
sg78
I26367
sg79
I26867
sg80
I39617
sg81
I6695
sg82
I29972
sg83
I3006
sg84
I3122
sg85
I23817
sg86
I2695
sg87
I28052
sg88
I27387
sg89
I19884
sg90
I7397
sg91
I278
sg92
I28296
sg93
I28571
sg94
I28326
sg95
I28973
sg96
I9848
sg97
I31349
sg98
I27766
sg99
I7899
sg100
I27768
sg101
I30187
sg102
I7896
ssg27
(dp126
g2
I4437
sg4
I1683
sg5
I4626
sg6
I1222
sg7
I4850
sg8
I4855
sg9
I4887
sg10
I2719
sg11
I3090
sg12
I4782
sg13
I4764
sg14
I4624
sg15
I1202
sg16
I1286
sg17
I4574
sg18
I4470
sg19
I4139
sg20
I919
sg21
I3862
sg22
I825
sg23
I4651
sg24
I4383
sg25
I4734
sg26
I4879
sg27
I7059
sg28
I4691
sg29
I3542
sg30
I5007
sg31
I1220
sg32
I5671
sg33
I3947
sg34
I4885
sg35
I4123
sg36
I5436
sg37
I3064
sg38
I980
sg39
I5012
sg40
I506
sg41
I3639
sg42
I2754
sg43
I1540
sg44
I4638
sg45
I4358
sg46
I4870
sg47
I4902
sg48
I3735
sg49
I4838
sg50
I4816
sg51
I4879
sg52
I4861
sg53
I5591
sg54
I1206
sg55
I4042
sg56
I2611
sg57
I4740
sg58
I4318
sg59
I1101
sg60
I4854
sg61
I4562
sg62
I4874
sg63
I4802
sg64
I3910
sg65
I4459
sg66
I4879
sg67
I5497
sg68
I1140
sg69
I4648
sg70
I940
sg71
I5069
sg72
I1812
sg73
I2556
sg74
I1212
sg75
I4617
sg76
I4582
sg77
I4715
sg78
I4700
sg79
I4720
sg80
I4808
sg81
I4539
sg82
I4750
sg83
I1661
sg84
I2885
sg85
I4508
sg86
I1593
sg87
I4738
sg88
I4815
sg89
I3919
sg90
I5089
sg91
I235
sg92
I4645
sg93
I4780
sg94
I4458
sg95
I4784
sg96
I4732
sg97
I4765
sg98
I4531
sg99
I4539
sg100
I4755
sg101
I4808
sg102
I4593
ssg28
(dp127
g2
I4552
sg4
I2794
sg5
I18441
sg6
I2070
sg7
I20659
sg8
I20553
sg9
I21343
sg10
I3370
sg11
I16544
sg12
I20257
sg13
I19789
sg14
I18341
sg15
I2078
sg16
I1963
sg17
I20494
sg18
I20675
sg19
I5604
sg20
I2095
sg21
I15864
sg22
I1596
sg23
I16677
sg24
I18975
sg25
I18562
sg26
I21621
sg27
I4691
sg28
I29144
sg29
I15428
sg30
I7221
sg31
I2068
sg32
I7519
sg33
I19132
sg34
I21832
sg35
I18782
sg36
I8117
sg37
I3898
sg38
I1831
sg39
I6513
sg40
I689
sg41
I3923
sg42
I8165
sg43
I2410
sg44
I20181
sg45
I19475
sg46
I21672
sg47
I22002
sg48
I19543
sg49
I21442
sg50
I20729
sg51
I21036
sg52
I20145
sg53
I6202
sg54
I2086
sg55
I16563
sg56
I7468
sg57
I21046
sg58
I18132
sg59
I2207
sg60
I20636
sg61
I18786
sg62
I20615
sg63
I20723
sg64
I16553
sg65
I18902
sg66
I21979
sg67
I7609
sg68
I2037
sg69
I19970
sg70
I1698
sg71
I7983
sg72
I3057
sg73
I4437
sg74
I2532
sg75
I20474
sg76
I7227
sg77
I19768
sg78
I19907
sg79
I23741
sg80
I21897
sg81
I6388
sg82
I20628
sg83
I2899
sg84
I2958
sg85
I18604
sg86
I2811
sg87
I20262
sg88
I19932
sg89
I17653
sg90
I6999
sg91
I279
sg92
I20436
sg93
I23402
sg94
I19228
sg95
I21738
sg96
I8671
sg97
I21081
sg98
I19436
sg99
I6949
sg100
I20129
sg101
I20758
sg102
I7267
ssg29
(dp128
g2
I3603
sg4
I2030
sg5
I17226
sg6
I1758
sg7
I20214
sg8
I19854
sg9
I20648
sg10
I2837
sg11
I12685
sg12
I20960
sg13
I17221
sg14
I18340
sg15
I1779
sg16
I1416
sg17
I20079
sg18
I21198
sg19
I4343
sg20
I1705
sg21
I14650
sg22
I1230
sg23
I15589
sg24
I16798
sg25
I16717
sg26
I21606
sg27
I3542
sg28
I15428
sg29
I27935
sg30
I5450
sg31
I1758
sg32
I6151
sg33
I18329
sg34
I21926
sg35
I18305
sg36
I6195
sg37
I3248
sg38
I1452
sg39
I5434
sg40
I353
sg41
I3057
sg42
I6143
sg43
I1527
sg44
I20753
sg45
I19488
sg46
I21660
sg47
I21973
sg48
I20015
sg49
I21693
sg50
I20345
sg51
I20782
sg52
I18980
sg53
I4865
sg54
I1783
sg55
I17918
sg56
I7624
sg57
I21528
sg58
I16897
sg59
I1510
sg60
I19641
sg61
I16162
sg62
I20252
sg63
I19895
sg64
I15979
sg65
I17924
sg66
I21648
sg67
I6103
sg68
I1654
sg69
I17904
sg70
I1543
sg71
I6824
sg72
I1702
sg73
I4174
sg74
I1574
sg75
I20649
sg76
I6386
sg77
I18332
sg78
I20126
sg79
I18843
sg80
I21822
sg81
I5460
sg82
I22064
sg83
I1836
sg84
I2275
sg85
I16995
sg86
I1865
sg87
I19331
sg88
I19052
sg89
I15326
sg90
I5748
sg91
I15
sg92
I21662
sg93
I19447
sg94
I19763
sg95
I20094
sg96
I6172
sg97
I20848
sg98
I19396
sg99
I5852
sg100
I19630
sg101
I21267
sg102
I6024
ssg30
(dp129
g2
I3841
sg4
I2181
sg5
I6992
sg6
I1346
sg7
I7539
sg8
I7490
sg9
I7302
sg10
I2731
sg11
I3557
sg12
I7410
sg13
I7202
sg14
I7142
sg15
I1339
sg16
I1423
sg17
I7216
sg18
I7251
sg19
I5465
sg20
I1377
sg21
I5996
sg22
I941
sg23
I6682
sg24
I6773
sg25
I7081
sg26
I7429
sg27
I5007
sg28
I7221
sg29
I5450
sg30
I10488
sg31
I1343
sg32
I7184
sg33
I6220
sg34
I7497
sg35
I5818
sg36
I6068
sg37
I3312
sg38
I1155
sg39
I5741
sg40
I485
sg41
I3524
sg42
I3999
sg43
I1686
sg44
I6654
sg45
I6353
sg46
I7440
sg47
I7680
sg48
I6369
sg49
I7539
sg50
I7534
sg51
I7442
sg52
I7393
sg53
I5900
sg54
I1344
sg55
I6107
sg56
I4503
sg57
I7482
sg58
I6105
sg59
I1670
sg60
I7592
sg61
I6941
sg62
I7145
sg63
I7474
sg64
I4987
sg65
I6727
sg66
I7674
sg67
I7585
sg68
I1309
sg69
I7275
sg70
I1083
sg71
I6290
sg72
I2432
sg73
I2780
sg74
I1801
sg75
I7654
sg76
I6909
sg77
I7039
sg78
I7143
sg79
I7205
sg80
I7539
sg81
I5382
sg82
I7298
sg83
I2113
sg84
I3014
sg85
I7115
sg86
I2230
sg87
I7218
sg88
I7531
sg89
I6174
sg90
I5658
sg91
I272
sg92
I7255
sg93
I7183
sg94
I6003
sg95
I7309
sg96
I6200
sg97
I7312
sg98
I7274
sg99
I4589
sg100
I7316
sg101
I7403
sg102
I5909
ssg31
(dp130
g2
I1354
sg4
I1565
sg5
I1820
sg6
I3112
sg7
I2108
sg8
I2108
sg9
I2025
sg10
I1614
sg11
I1612
sg12
I2101
sg13
I2097
sg14
I2080
sg15
I3002
sg16
I1685
sg17
I2103
sg18
I2125
sg19
I1262
sg20
I1988
sg21
I1979
sg22
I1598
sg23
I2081
sg24
I2088
sg25
I2102
sg26
I2121
sg27
I1220
sg28
I2068
sg29
I1758
sg30
I1343
sg31
I3123
sg32
I1963
sg33
I2045
sg34
I2116
sg35
I2076
sg36
I2004
sg37
I1719
sg38
I2018
sg39
I1856
sg40
I261
sg41
I1242
sg42
I1757
sg43
I1866
sg44
I2107
sg45
I2073
sg46
I2101
sg47
I2120
sg48
I1493
sg49
I2106
sg50
I2086
sg51
I2118
sg52
I2118
sg53
I1715
sg54
I2998
sg55
I2016
sg56
I1674
sg57
I2094
sg58
I1731
sg59
I1807
sg60
I2114
sg61
I2047
sg62
I2095
sg63
I2082
sg64
I2049
sg65
I1952
sg66
I2117
sg67
I1962
sg68
I2835
sg69
I2063
sg70
I1209
sg71
I1692
sg72
I1956
sg73
I1983
sg74
I2125
sg75
I2118
sg76
I1996
sg77
I1979
sg78
I2122
sg79
I2104
sg80
I2081
sg81
I1763
sg82
I2092
sg83
I1817
sg84
I1241
sg85
I2085
sg86
I2219
sg87
I2099
sg88
I2103
sg89
I2071
sg90
I1689
sg91
I239
sg92
I2095
sg93
I2112
sg94
I2106
sg95
I2105
sg96
I1990
sg97
I2104
sg98
I1780
sg99
I1676
sg100
I2108
sg101
I2105
sg102
I1957
ssg32
(dp131
g2
I5061
sg4
I2613
sg5
I7177
sg6
I1965
sg7
I7853
sg8
I7707
sg9
I7947
sg10
I3599
sg11
I4358
sg12
I7721
sg13
I7607
sg14
I7426
sg15
I1963
sg16
I1916
sg17
I7553
sg18
I7469
sg19
I5088
sg20
I1640
sg21
I6575
sg22
I1473
sg23
I7291
sg24
I7291
sg25
I7546
sg26
I7878
sg27
I5671
sg28
I7519
sg29
I6151
sg30
I7184
sg31
I1963
sg32
I11408
sg33
I6840
sg34
I7916
sg35
I6340
sg36
I7323
sg37
I4223
sg38
I1756
sg39
I7087
sg40
I455
sg41
I4115
sg42
I4644
sg43
I2216
sg44
I7078
sg45
I6699
sg46
I7895
sg47
I7927
sg48
I6407
sg49
I7752
sg50
I7828
sg51
I7902
sg52
I7798
sg53
I7276
sg54
I1976
sg55
I6661
sg56
I4865
sg57
I7780
sg58
I6315
sg59
I1966
sg60
I7861
sg61
I7357
sg62
I7669
sg63
I7788
sg64
I5757
sg65
I6933
sg66
I7919
sg67
I9725
sg68
I1851
sg69
I7551
sg70
I1415
sg71
I7776
sg72
I2799
sg73
I3615
sg74
I2137
sg75
I7648
sg76
I8555
sg77
I7735
sg78
I7501
sg79
I7582
sg80
I7847
sg81
I6410
sg82
I7657
sg83
I2552
sg84
I2991
sg85
I7404
sg86
I2613
sg87
I7757
sg88
I7760
sg89
I6621
sg90
I7081
sg91
I235
sg92
I7586
sg93
I7631
sg94
I6689
sg95
I7702
sg96
I7484
sg97
I7742
sg98
I6628
sg99
I6504
sg100
I7633
sg101
I7853
sg102
I6887
ssg33
(dp132
g2
I3986
sg4
I2473
sg5
I21089
sg6
I2047
sg7
I26766
sg8
I26424
sg9
I26053
sg10
I3151
sg11
I16081
sg12
I24905
sg13
I21111
sg14
I21532
sg15
I2051
sg16
I1845
sg17
I26470
sg18
I28327
sg19
I4799
sg20
I2042
sg21
I17134
sg22
I1525
sg23
I19775
sg24
I20253
sg25
I20330
sg26
I27087
sg27
I3947
sg28
I19132
sg29
I18329
sg30
I6220
sg31
I2045
sg32
I6840
sg33
I33803
sg34
I27245
sg35
I24463
sg36
I7467
sg37
I3995
sg38
I1776
sg39
I6029
sg40
I755
sg41
I3943
sg42
I8491
sg43
I2404
sg44
I26393
sg45
I24995
sg46
I27039
sg47
I27317
sg48
I27057
sg49
I27967
sg50
I26783
sg51
I25401
sg52
I24222
sg53
I5589
sg54
I2057
sg55
I20904
sg56
I7369
sg57
I27501
sg58
I30291
sg59
I1871
sg60
I24256
sg61
I20621
sg62
I27179
sg63
I26335
sg64
I20068
sg65
I30432
sg66
I26872
sg67
I6892
sg68
I1991
sg69
I21599
sg70
I1802
sg71
I8000
sg72
I2883
sg73
I4368
sg74
I2211
sg75
I25273
sg76
I6442
sg77
I23461
sg78
I23047
sg79
I23101
sg80
I27189
sg81
I5912
sg82
I25922
sg83
I2777
sg84
I3015
sg85
I20601
sg86
I2449
sg87
I31679
sg88
I25279
sg89
I17903
sg90
I6431
sg91
I275
sg92
I24874
sg93
I24260
sg94
I27365
sg95
I24681
sg96
I8937
sg97
I25749
sg98
I24858
sg99
I7139
sg100
I25823
sg101
I28998
sg102
I6761
ssg34
(dp133
g2
I4755
sg4
I2800
sg5
I24485
sg6
I2118
sg7
I29280
sg8
I29045
sg9
I36966
sg10
I3524
sg11
I18432
sg12
I28958
sg13
I24353
sg14
I24985
sg15
I2126
sg16
I1987
sg17
I28730
sg18
I30759
sg19
I5840
sg20
I2149
sg21
I18841
sg22
I1620
sg23
I21329
sg24
I22874
sg25
I23051
sg26
I39169
sg27
I4885
sg28
I21832
sg29
I21926
sg30
I7497
sg31
I2116
sg32
I7916
sg33
I27245
sg34
I42337
sg35
I27322
sg36
I8648
sg37
I4113
sg38
I1873
sg39
I6802
sg40
I749
sg41
I4250
sg42
I9214
sg43
I2558
sg44
I30323
sg45
I28400
sg46
I39114
sg47
I41400
sg48
I29519
sg49
I31491
sg50
I29404
sg51
I35768
sg52
I33168
sg53
I6502
sg54
I2131
sg55
I23775
sg56
I8440
sg57
I31136
sg58
I25810
sg59
I2145
sg60
I32240
sg61
I23569
sg62
I29255
sg63
I28708
sg64
I22546
sg65
I26468
sg66
I39552
sg67
I7985
sg68
I2080
sg69
I25141
sg70
I1936
sg71
I9123
sg72
I3254
sg73
I4758
sg74
I2473
sg75
I36954
sg76
I7622
sg77
I27967
sg78
I26661
sg79
I27229
sg80
I41301
sg81
I6711
sg82
I30193
sg83
I3011
sg84
I3128
sg85
I24020
sg86
I2765
sg87
I28325
sg88
I27652
sg89
I20072
sg90
I7390
sg91
I277
sg92
I28644
sg93
I28933
sg94
I28743
sg95
I29405
sg96
I9901
sg97
I31536
sg98
I28145
sg99
I7963
sg100
I28147
sg101
I30652
sg102
I7943
ssg35
(dp134
g2
I4419
sg4
I2875
sg5
I20255
sg6
I2076
sg7
I25965
sg8
I25705
sg9
I25700
sg10
I3402
sg11
I16775
sg12
I25741
sg13
I20846
sg14
I21383
sg15
I2082
sg16
I1910
sg17
I26485
sg18
I27564
sg19
I5365
sg20
I2097
sg21
I16341
sg22
I1588
sg23
I19257
sg24
I19317
sg25
I19381
sg26
I26927
sg27
I4123
sg28
I18782
sg29
I18305
sg30
I5818
sg31
I2076
sg32
I6340
sg33
I24463
sg34
I27322
sg35
I33343
sg36
I7765
sg37
I4058
sg38
I1826
sg39
I5302
sg40
I726
sg41
I4151
sg42
I8620
sg43
I2496
sg44
I28325
sg45
I27449
sg46
I26991
sg47
I27541
sg48
I26294
sg49
I28843
sg50
I26182
sg51
I25560
sg52
I23445
sg53
I5351
sg54
I2089
sg55
I20294
sg56
I6395
sg57
I32555
sg58
I23711
sg59
I2266
sg60
I23961
sg61
I19283
sg62
I25694
sg63
I25662
sg64
I21333
sg65
I23053
sg66
I27605
sg67
I6249
sg68
I2040
sg69
I21144
sg70
I1871
sg71
I7464
sg72
I3321
sg73
I4267
sg74
I2579
sg75
I25457
sg76
I5888
sg77
I22697
sg78
I23362
sg79
I23245
sg80
I27275
sg81
I5617
sg82
I26096
sg83
I2899
sg84
I3061
sg85
I20139
sg86
I2851
sg87
I24837
sg88
I24810
sg89
I17211
sg90
I6639
sg91
I274
sg92
I24899
sg93
I23963
sg94
I27132
sg95
I24845
sg96
I8770
sg97
I25728
sg98
I25913
sg99
I7106
sg100
I25464
sg101
I27047
sg102
I6287
ssg36
(dp135
g2
I4946
sg4
I2541
sg5
I7520
sg6
I2006
sg7
I8467
sg8
I8441
sg9
I8654
sg10
I3725
sg11
I5015
sg12
I8373
sg13
I8100
sg14
I7770
sg15
I2004
sg16
I1974
sg17
I8154
sg18
I8069
sg19
I5769
sg20
I1830
sg21
I6601
sg22
I1539
sg23
I7366
sg24
I7836
sg25
I7875
sg26
I8642
sg27
I5436
sg28
I8117
sg29
I6195
sg30
I6068
sg31
I2004
sg32
I7323
sg33
I7467
sg34
I8648
sg35
I7765
sg36
I12712
sg37
I4344
sg38
I1808
sg39
I7175
sg40
I654
sg41
I4166
sg42
I4635
sg43
I2164
sg44
I8287
sg45
I7866
sg46
I8628
sg47
I8661
sg48
I7176
sg49
I8449
sg50
I8515
sg51
I8641
sg52
I8073
sg53
I6395
sg54
I2013
sg55
I6886
sg56
I4397
sg57
I8458
sg58
I7334
sg59
I1934
sg60
I8555
sg61
I7637
sg62
I8351
sg63
I8448
sg64
I6906
sg65
I7462
sg66
I8643
sg67
I7413
sg68
I1981
sg69
I8072
sg70
I1475
sg71
I7653
sg72
I2612
sg73
I3696
sg74
I2029
sg75
I8358
sg76
I6526
sg77
I8255
sg78
I8041
sg79
I8334
sg80
I8547
sg81
I6289
sg82
I8362
sg83
I2543
sg84
I3143
sg85
I7399
sg86
I2468
sg87
I8348
sg88
I8461
sg89
I6940
sg90
I8197
sg91
I262
sg92
I8061
sg93
I8152
sg94
I8065
sg95
I8378
sg96
I7586
sg97
I8358
sg98
I7311
sg99
I6324
sg100
I8310
sg101
I8411
sg102
I6957
ssg37
(dp136
g2
I3241
sg4
I2221
sg5
I3789
sg6
I1723
sg7
I4032
sg8
I4048
sg9
I4025
sg10
I3022
sg11
I2609
sg12
I3969
sg13
I3919
sg14
I3949
sg15
I1718
sg16
I1502
sg17
I4050
sg18
I3734
sg19
I3396
sg20
I1411
sg21
I3726
sg22
I1286
sg23
I3906
sg24
I3721
sg25
I3903
sg26
I4116
sg27
I3064
sg28
I3898
sg29
I3248
sg30
I3312
sg31
I1719
sg32
I4223
sg33
I3995
sg34
I4113
sg35
I4058
sg36
I4344
sg37
I5833
sg38
I1486
sg39
I3842
sg40
I296
sg41
I3357
sg42
I3101
sg43
I1748
sg44
I4041
sg45
I3810
sg46
I4093
sg47
I4141
sg48
I2850
sg49
I4055
sg50
I4012
sg51
I4117
sg52
I4097
sg53
I4136
sg54
I1740
sg55
I3829
sg56
I2998
sg57
I4057
sg58
I3538
sg59
I1591
sg60
I4087
sg61
I3925
sg62
I4047
sg63
I4053
sg64
I3929
sg65
I3287
sg66
I4118
sg67
I4111
sg68
I1715
sg69
I3908
sg70
I1310
sg71
I4041
sg72
I1836
sg73
I3331
sg74
I1714
sg75
I3821
sg76
I4193
sg77
I3839
sg78
I3990
sg79
I3915
sg80
I4011
sg81
I4525
sg82
I3996
sg83
I1752
sg84
I3838
sg85
I3925
sg86
I1913
sg87
I3989
sg88
I4042
sg89
I3706
sg90
I4076
sg91
I242
sg92
I3974
sg93
I3896
sg94
I4031
sg95
I4067
sg96
I4612
sg97
I4062
sg98
I3298
sg99
I4081
sg100
I4037
sg101
I4032
sg102
I4553
ssg38
(dp137
g2
I1299
sg4
I1630
sg5
I1633
sg6
I2015
sg7
I1864
sg8
I1869
sg9
I1763
sg10
I1579
sg11
I1292
sg12
I1856
sg13
I1871
sg14
I1831
sg15
I2042
sg16
I1626
sg17
I1862
sg18
I1854
sg19
I1080
sg20
I1967
sg21
I1658
sg22
I1571
sg23
I1814
sg24
I1829
sg25
I1873
sg26
I1874
sg27
I980
sg28
I1831
sg29
I1452
sg30
I1155
sg31
I2018
sg32
I1756
sg33
I1776
sg34
I1873
sg35
I1826
sg36
I1808
sg37
I1486
sg38
I2855
sg39
I1578
sg40
I259
sg41
I961
sg42
I1574
sg43
I1956
sg44
I1865
sg45
I1861
sg46
I1852
sg47
I1876
sg48
I1245
sg49
I1870
sg50
I1850
sg51
I1867
sg52
I1869
sg53
I1491
sg54
I2058
sg55
I1700
sg56
I1409
sg57
I1847
sg58
I1477
sg59
I1903
sg60
I1874
sg61
I1817
sg62
I1869
sg63
I1866
sg64
I1766
sg65
I1712
sg66
I1871
sg67
I1761
sg68
I2085
sg69
I1845
sg70
I1102
sg71
I1520
sg72
I2025
sg73
I1715
sg74
I2107
sg75
I1871
sg76
I1804
sg77
I1795
sg78
I1821
sg79
I1870
sg80
I1813
sg81
I1505
sg82
I1857
sg83
I1852
sg84
I962
sg85
I1872
sg86
I2014
sg87
I1853
sg88
I1865
sg89
I1835
sg90
I1525
sg91
I229
sg92
I1856
sg93
I1873
sg94
I1867
sg95
I1868
sg96
I1783
sg97
I1878
sg98
I1547
sg99
I1449
sg100
I1865
sg101
I1868
sg102
I1724
ssg39
(dp138
g2
I4397
sg4
I2222
sg5
I6273
sg6
I1857
sg7
I6712
sg8
I6682
sg9
I6844
sg10
I3496
sg11
I3833
sg12
I6600
sg13
I6512
sg14
I6530
sg15
I1867
sg16
I1784
sg17
I6446
sg18
I6333
sg19
I4034
sg20
I1542
sg21
I5786
sg22
I1380
sg23
I6375
sg24
I6421
sg25
I6435
sg26
I6783
sg27
I5012
sg28
I6513
sg29
I5434
sg30
I5741
sg31
I1856
sg32
I7087
sg33
I6029
sg34
I6802
sg35
I5302
sg36
I7175
sg37
I3842
sg38
I1578
sg39
I10353
sg40
I618
sg41
I3886
sg42
I3777
sg43
I1964
sg44
I5927
sg45
I5696
sg46
I6776
sg47
I6802
sg48
I5344
sg49
I6711
sg50
I6694
sg51
I6783
sg52
I6692
sg53
I6195
sg54
I1870
sg55
I5900
sg56
I4189
sg57
I6649
sg58
I5367
sg59
I1648
sg60
I6732
sg61
I6363
sg62
I6679
sg63
I6625
sg64
I4907
sg65
I5927
sg66
I6818
sg67
I7223
sg68
I1843
sg69
I6450
sg70
I1360
sg71
I7000
sg72
I2260
sg73
I3236
sg74
I1638
sg75
I6511
sg76
I6441
sg77
I6645
sg78
I6517
sg79
I6652
sg80
I6715
sg81
I5965
sg82
I6597
sg83
I2301
sg84
I2953
sg85
I6094
sg86
I2100
sg87
I6657
sg88
I6679
sg89
I5814
sg90
I6954
sg91
I266
sg92
I6586
sg93
I6563
sg94
I5587
sg95
I6594
sg96
I6154
sg97
I6661
sg98
I5832
sg99
I5935
sg100
I6520
sg101
I6702
sg102
I6423
ssg40
(dp139
g2
I386
sg4
I276
sg5
I706
sg6
I261
sg7
I735
sg8
I734
sg9
I741
sg10
I364
sg11
I684
sg12
I709
sg13
I721
sg14
I676
sg15
I248
sg16
I296
sg17
I739
sg18
I751
sg19
I455
sg20
I255
sg21
I342
sg22
I277
sg23
I672
sg24
I739
sg25
I711
sg26
I749
sg27
I506
sg28
I689
sg29
I353
sg30
I485
sg31
I261
sg32
I455
sg33
I755
sg34
I749
sg35
I726
sg36
I654
sg37
I296
sg38
I259
sg39
I618
sg40
I1065
sg41
I421
sg42
I473
sg43
I229
sg44
I723
sg45
I732
sg46
I750
sg47
I750
sg48
I752
sg49
I735
sg50
I734
sg51
I750
sg52
I730
sg53
I352
sg54
I245
sg55
I530
sg56
I375
sg57
I725
sg58
I758
sg59
I273
sg60
I736
sg61
I702
sg62
I740
sg63
I730
sg64
I700
sg65
I761
sg66
I751
sg67
I462
sg68
I247
sg69
I719
sg70
I267
sg71
I567
sg72
I274
sg73
I331
sg74
I274
sg75
I747
sg76
I418
sg77
I685
sg78
I749
sg79
I713
sg80
I751
sg81
I560
sg82
I738
sg83
I313
sg84
I315
sg85
I507
sg86
I283
sg87
I750
sg88
I741
sg89
I686
sg90
I644
sg91
I257
sg92
I725
sg93
I717
sg94
I748
sg95
I652
sg96
I642
sg97
I691
sg98
I736
sg99
I567
sg100
I735
sg101
I748
sg102
I399
ssg41
(dp140
g2
I3505
sg4
I1656
sg5
I3661
sg6
I1244
sg7
I4172
sg8
I4131
sg9
I4221
sg10
I2431
sg11
I3350
sg12
I4182
sg13
I3650
sg14
I4125
sg15
I1239
sg16
I1017
sg17
I4005
sg18
I3855
sg19
I4052
sg20
I916
sg21
I3716
sg22
I773
sg23
I3941
sg24
I3650
sg25
I3564
sg26
I4216
sg27
I3639
sg28
I3923
sg29
I3057
sg30
I3524
sg31
I1242
sg32
I4115
sg33
I3943
sg34
I4250
sg35
I4151
sg36
I4166
sg37
I3357
sg38
I961
sg39
I3886
sg40
I421
sg41
I6017
sg42
I3040
sg43
I1082
sg44
I4185
sg45
I3918
sg46
I4208
sg47
I4276
sg48
I3164
sg49
I4171
sg50
I4194
sg51
I4006
sg52
I4223
sg53
I4064
sg54
I1254
sg55
I3888
sg56
I2338
sg57
I4139
sg58
I4090
sg59
I1065
sg60
I3977
sg61
I3818
sg62
I4162
sg63
I4173
sg64
I4049
sg65
I3724
sg66
I4264
sg67
I4219
sg68
I1212
sg69
I3692
sg70
I992
sg71
I4436
sg72
I1145
sg73
I2711
sg74
I1006
sg75
I3626
sg76
I4076
sg77
I4041
sg78
I4127
sg79
I4045
sg80
I4161
sg81
I4050
sg82
I4141
sg83
I1229
sg84
I3118
sg85
I3749
sg86
I1363
sg87
I4109
sg88
I4190
sg89
I3906
sg90
I3939
sg91
I236
sg92
I4133
sg93
I4038
sg94
I4200
sg95
I4140
sg96
I4163
sg97
I4169
sg98
I3843
sg99
I4198
sg100
I4209
sg101
I4203
sg102
I3515
ssg42
(dp141
g2
I2845
sg4
I2372
sg5
I7816
sg6
I1758
sg7
I9014
sg8
I8863
sg9
I9060
sg10
I2785
sg11
I6711
sg12
I8756
sg13
I8088
sg14
I8552
sg15
I1742
sg16
I1719
sg17
I8677
sg18
I8850
sg19
I3286
sg20
I1601
sg21
I7193
sg22
I1266
sg23
I7900
sg24
I7705
sg25
I7986
sg26
I9177
sg27
I2754
sg28
I8165
sg29
I6143
sg30
I3999
sg31
I1757
sg32
I4644
sg33
I8491
sg34
I9214
sg35
I8620
sg36
I4635
sg37
I3101
sg38
I1574
sg39
I3777
sg40
I473
sg41
I3040
sg42
I13173
sg43
I1888
sg44
I8910
sg45
I8619
sg46
I9133
sg47
I9274
sg48
I8109
sg49
I9138
sg50
I9007
sg51
I8887
sg52
I9057
sg53
I3716
sg54
I1740
sg55
I7204
sg56
I7458
sg57
I8991
sg58
I8190
sg59
I1743
sg60
I8814
sg61
I8212
sg62
I8824
sg63
I8930
sg64
I7577
sg65
I8168
sg66
I9230
sg67
I4674
sg68
I1592
sg69
I8189
sg70
I1420
sg71
I4179
sg72
I2404
sg73
I4591
sg74
I1783
sg75
I8533
sg76
I4363
sg77
I8690
sg78
I8613
sg79
I8507
sg80
I9241
sg81
I3850
sg82
I9067
sg83
I2656
sg84
I2241
sg85
I8095
sg86
I2199
sg87
I8921
sg88
I9009
sg89
I7740
sg90
I4162
sg91
I261
sg92
I8926
sg93
I8664
sg94
I8976
sg95
I8823
sg96
I5504
sg97
I8875
sg98
I7973
sg99
I3572
sg100
I8996
sg101
I9096
sg102
I4190
ssg43
(dp142
g2
I1556
sg4
I1656
sg5
I2148
sg6
I1867
sg7
I2439
sg8
I2450
sg9
I2440
sg10
I1705
sg11
I1795
sg12
I2486
sg13
I2514
sg14
I2447
sg15
I1877
sg16
I1788
sg17
I2363
sg18
I2517
sg19
I1304
sg20
I1833
sg21
I1942
sg22
I1550
sg23
I2290
sg24
I2254
sg25
I2397
sg26
I2552
sg27
I1540
sg28
I2410
sg29
I1527
sg30
I1686
sg31
I1866
sg32
I2216
sg33
I2404
sg34
I2558
sg35
I2496
sg36
I2164
sg37
I1748
sg38
I1956
sg39
I1964
sg40
I229
sg41
I1082
sg42
I1888
sg43
I3608
sg44
I2502
sg45
I2506
sg46
I2540
sg47
I2568
sg48
I1895
sg49
I2524
sg50
I2434
sg51
I2557
sg52
I2462
sg53
I2026
sg54
I1896
sg55
I1976
sg56
I1440
sg57
I2508
sg58
I2174
sg59
I1932
sg60
I2464
sg61
I2322
sg62
I2518
sg63
I2435
sg64
I2330
sg65
I2386
sg66
I2560
sg67
I2228
sg68
I1921
sg69
I2422
sg70
I1179
sg71
I1732
sg72
I3480
sg73
I1820
sg74
I2163
sg75
I2558
sg76
I1974
sg77
I2378
sg78
I2387
sg79
I2287
sg80
I2489
sg81
I1845
sg82
I2496
sg83
I2327
sg84
I1241
sg85
I2396
sg86
I2496
sg87
I2487
sg88
I2431
sg89
I1892
sg90
I1862
sg91
I221
sg92
I2423
sg93
I2499
sg94
I2465
sg95
I2507
sg96
I2267
sg97
I2522
sg98
I2250
sg99
I1712
sg100
I2457
sg101
I2467
sg102
I2058
ssg44
(dp143
g2
I4680
sg4
I2925
sg5
I22221
sg6
I2108
sg7
I28800
sg8
I28520
sg9
I28293
sg10
I3447
sg11
I17609
sg12
I27377
sg13
I22482
sg14
I23601
sg15
I2115
sg16
I1954
sg17
I28497
sg18
I30284
sg19
I5711
sg20
I2133
sg21
I17852
sg22
I1606
sg23
I21313
sg24
I21319
sg25
I21197
sg26
I29718
sg27
I4638
sg28
I20181
sg29
I20753
sg30
I6654
sg31
I2107
sg32
I7078
sg33
I26393
sg34
I30323
sg35
I28325
sg36
I8287
sg37
I4041
sg38
I1865
sg39
I5927
sg40
I723
sg41
I4185
sg42
I8910
sg43
I2502
sg44
I36641
sg45
I29166
sg46
I29819
sg47
I30584
sg48
I28985
sg49
I32848
sg50
I29074
sg51
I28071
sg52
I26257
sg53
I6090
sg54
I2121
sg55
I23285
sg56
I7505
sg57
I31000
sg58
I25772
sg59
I2305
sg60
I26496
sg61
I21264
sg62
I28402
sg63
I28478
sg64
I22445
sg65
I25688
sg66
I30154
sg67
I7005
sg68
I2072
sg69
I23164
sg70
I1892
sg71
I8281
sg72
I3355
sg73
I4657
sg74
I2628
sg75
I28405
sg76
I6633
sg77
I24937
sg78
I25266
sg79
I25286
sg80
I30374
sg81
I6123
sg82
I28725
sg83
I2955
sg84
I3055
sg85
I22014
sg86
I2906
sg87
I27576
sg88
I27151
sg89
I18368
sg90
I7212
sg91
I273
sg92
I27312
sg93
I26438
sg94
I29408
sg95
I27102
sg96
I9352
sg97
I28147
sg98
I27787
sg99
I7741
sg100
I28098
sg101
I29827
sg102
I6989
ssg45
(dp144
g2
I4566
sg4
I2900
sg5
I21372
sg6
I2074
sg7
I27156
sg8
I26849
sg9
I26758
sg10
I3415
sg11
I16956
sg12
I25800
sg13
I21674
sg14
I22508
sg15
I2080
sg16
I1973
sg17
I30477
sg18
I28498
sg19
I5463
sg20
I2136
sg21
I17321
sg22
I1621
sg23
I20176
sg24
I20312
sg25
I20316
sg26
I27882
sg27
I4358
sg28
I19475
sg29
I19488
sg30
I6353
sg31
I2073
sg32
I6699
sg33
I24995
sg34
I28400
sg35
I27449
sg36
I7866
sg37
I3810
sg38
I1861
sg39
I5696
sg40
I732
sg41
I3918
sg42
I8619
sg43
I2506
sg44
I29166
sg45
I35196
sg46
I27927
sg47
I28555
sg48
I27171
sg49
I29692
sg50
I27400
sg51
I26264
sg52
I24855
sg53
I5754
sg54
I2084
sg55
I21493
sg56
I7021
sg57
I29881
sg58
I24313
sg59
I2310
sg60
I25019
sg61
I20300
sg62
I26847
sg63
I27072
sg64
I21393
sg65
I24505
sg66
I28372
sg67
I6747
sg68
I2064
sg69
I22426
sg70
I1887
sg71
I7889
sg72
I3323
sg73
I4336
sg74
I2627
sg75
I26464
sg76
I6363
sg77
I23687
sg78
I24205
sg79
I24010
sg80
I28415
sg81
I5940
sg82
I26889
sg83
I2967
sg84
I2850
sg85
I21243
sg86
I2882
sg87
I25932
sg88
I25632
sg89
I17779
sg90
I6787
sg91
I271
sg92
I25884
sg93
I24991
sg94
I27622
sg95
I25761
sg96
I9003
sg97
I26591
sg98
I31413
sg99
I7357
sg100
I26671
sg101
I28109
sg102
I6702
ssg46
(dp145
g2
I4752
sg4
I2733
sg5
I24337
sg6
I2102
sg7
I29025
sg8
I28716
sg9
I38501
sg10
I3525
sg11
I18085
sg12
I28669
sg13
I24177
sg14
I24738
sg15
I2110
sg16
I1971
sg17
I28224
sg18
I30466
sg19
I5802
sg20
I2131
sg21
I18658
sg22
I1613
sg23
I21166
sg24
I22648
sg25
I22884
sg26
I41175
sg27
I4870
sg28
I21672
sg29
I21660
sg30
I7440
sg31
I2101
sg32
I7895
sg33
I27039
sg34
I39114
sg35
I26991
sg36
I8628
sg37
I4093
sg38
I1852
sg39
I6776
sg40
I750
sg41
I4208
sg42
I9133
sg43
I2540
sg44
I29819
sg45
I27927
sg46
I42178
sg47
I39822
sg48
I29192
sg49
I31085
sg50
I29053
sg51
I38164
sg52
I33240
sg53
I6491
sg54
I2111
sg55
I23413
sg56
I8369
sg57
I30743
sg58
I25671
sg59
I2070
sg60
I32482
sg61
I23306
sg62
I28842
sg63
I28364
sg64
I22362
sg65
I26335
sg66
I38362
sg67
I7952
sg68
I2064
sg69
I24860
sg70
I1929
sg71
I9077
sg72
I3168
sg73
I4751
sg74
I2462
sg75
I36348
sg76
I7580
sg77
I27628
sg78
I26358
sg79
I26904
sg80
I39633
sg81
I6685
sg82
I29969
sg83
I2946
sg84
I3105
sg85
I23788
sg86
I2684
sg87
I28038
sg88
I27368
sg89
I19906
sg90
I7368
sg91
I278
sg92
I28348
sg93
I28678
sg94
I28417
sg95
I29089
sg96
I9841
sg97
I31406
sg98
I27835
sg99
I7899
sg100
I27813
sg101
I30304
sg102
I7881
ssg47
(dp146
g2
I4800
sg4
I2989
sg5
I24598
sg6
I2122
sg7
I29566
sg8
I29331
sg9
I37527
sg10
I3543
sg11
I18409
sg12
I29169
sg13
I24569
sg14
I25059
sg15
I2133
sg16
I1995
sg17
I28982
sg18
I31067
sg19
I5856
sg20
I2157
sg21
I18828
sg22
I1618
sg23
I21521
sg24
I22834
sg25
I23212
sg26
I39979
sg27
I4902
sg28
I22002
sg29
I21973
sg30
I7680
sg31
I2120
sg32
I7927
sg33
I27317
sg34
I41400
sg35
I27541
sg36
I8661
sg37
I4141
sg38
I1876
sg39
I6802
sg40
I750
sg41
I4276
sg42
I9274
sg43
I2568
sg44
I30584
sg45
I28555
sg46
I39822
sg47
I43328
sg48
I29767
sg49
I31753
sg50
I29596
sg51
I36718
sg52
I33644
sg53
I6551
sg54
I2135
sg55
I23745
sg56
I8463
sg57
I31303
sg58
I25948
sg59
I2358
sg60
I32907
sg61
I23584
sg62
I29328
sg63
I28953
sg64
I22784
sg65
I26594
sg66
I40164
sg67
I7981
sg68
I2085
sg69
I25310
sg70
I1938
sg71
I9112
sg72
I3470
sg73
I4820
sg74
I2661
sg75
I37840
sg76
I7617
sg77
I27924
sg78
I26923
sg79
I27263
sg80
I42260
sg81
I6738
sg82
I30435
sg83
I3011
sg84
I3128
sg85
I24243
sg86
I2973
sg87
I28382
sg88
I27844
sg89
I20098
sg90
I7425
sg91
I276
sg92
I28938
sg93
I29056
sg94
I28799
sg95
I29527
sg96
I9945
sg97
I31778
sg98
I28325
sg99
I7969
sg100
I28435
sg101
I30708
sg102
I7944
ssg48
(dp147
g2
I3239
sg4
I1950
sg5
I21654
sg6
I1492
sg7
I28417
sg8
I28081
sg9
I27880
sg10
I2368
sg11
I16894
sg12
I26585
sg13
I21920
sg14
I23041
sg15
I1499
sg16
I1394
sg17
I27573
sg18
I34749
sg19
I4584
sg20
I1561
sg21
I17350
sg22
I1204
sg23
I20248
sg24
I20473
sg25
I20727
sg26
I29048
sg27
I3735
sg28
I19543
sg29
I20015
sg30
I6369
sg31
I1493
sg32
I6407
sg33
I27057
sg34
I29519
sg35
I26294
sg36
I7176
sg37
I2850
sg38
I1245
sg39
I5344
sg40
I752
sg41
I3164
sg42
I8109
sg43
I1895
sg44
I28985
sg45
I27171
sg46
I29192
sg47
I29767
sg48
I36181
sg49
I30534
sg50
I28347
sg51
I27440
sg52
I25539
sg53
I5216
sg54
I1506
sg55
I22073
sg56
I7404
sg57
I30134
sg58
I25711
sg59
I1692
sg60
I25775
sg61
I20895
sg62
I29288
sg63
I27667
sg64
I20968
sg65
I26726
sg66
I29150
sg67
I6530
sg68
I1350
sg69
I22652
sg70
I1561
sg71
I7596
sg72
I2731
sg73
I3386
sg74
I1971
sg75
I27706
sg76
I6119
sg77
I24595
sg78
I24628
sg79
I24392
sg80
I29698
sg81
I5287
sg82
I28311
sg83
I2255
sg84
I2062
sg85
I21541
sg86
I2319
sg87
I28081
sg88
I26522
sg89
I17912
sg90
I5913
sg91
I277
sg92
I26694
sg93
I25552
sg94
I29006
sg95
I26485
sg96
I8244
sg97
I27575
sg98
I27445
sg99
I6451
sg100
I27191
sg101
I30972
sg102
I6239
ssg49
(dp148
g2
I4708
sg4
I2933
sg5
I23330
sg6
I2108
sg7
I30402
sg8
I30077
sg9
I29770
sg10
I3462
sg11
I17861
sg12
I28952
sg13
I23660
sg14
I24830
sg15
I2117
sg16
I1976
sg17
I29828
sg18
I31790
sg19
I5705
sg20
I2147
sg21
I19181
sg22
I1621
sg23
I22195
sg24
I22461
sg25
I22311
sg26
I31041
sg27
I4838
sg28
I21442
sg29
I21693
sg30
I7539
sg31
I2106
sg32
I7752
sg33
I27967
sg34
I31491
sg35
I28843
sg36
I8449
sg37
I4055
sg38
I1870
sg39
I6711
sg40
I735
sg41
I4171
sg42
I9138
sg43
I2524
sg44
I32848
sg45
I29692
sg46
I31085
sg47
I31753
sg48
I30534
sg49
I37974
sg50
I30542
sg51
I29354
sg52
I27609
sg53
I6425
sg54
I2121
sg55
I23833
sg56
I8424
sg57
I32472
sg58
I26490
sg59
I2320
sg60
I27836
sg61
I22391
sg62
I29939
sg63
I29988
sg64
I22677
sg65
I27309
sg66
I31523
sg67
I7912
sg68
I2075
sg69
I24390
sg70
I1909
sg71
I8893
sg72
I3369
sg73
I4654
sg74
I2622
sg75
I29506
sg76
I7501
sg77
I26258
sg78
I26747
sg79
I26523
sg80
I31554
sg81
I6566
sg82
I30101
sg83
I2976
sg84
I3054
sg85
I23174
sg86
I2924
sg87
I29037
sg88
I28614
sg89
I19643
sg90
I7230
sg91
I278
sg92
I28801
sg93
I27604
sg94
I29528
sg95
I28720
sg96
I9560
sg97
I29584
sg98
I29403
sg99
I7727
sg100
I29225
sg101
I31315
sg102
I7772
ssg50
(dp149
g2
I4738
sg4
I2920
sg5
I22559
sg6
I2087
sg7
I32384
sg8
I32071
sg9
I27915
sg10
I3491
sg11
I16696
sg12
I26620
sg13
I22871
sg14
I23611
sg15
I2097
sg16
I1956
sg17
I28172
sg18
I29612
sg19
I5700
sg20
I2125
sg21
I18862
sg22
I1605
sg23
I21748
sg24
I21417
sg25
I22017
sg26
I28937
sg27
I4816
sg28
I20729
sg29
I20345
sg30
I7534
sg31
I2086
sg32
I7828
sg33
I26783
sg34
I29404
sg35
I26182
sg36
I8515
sg37
I4012
sg38
I1850
sg39
I6694
sg40
I734
sg41
I4194
sg42
I9007
sg43
I2434
sg44
I29074
sg45
I27400
sg46
I29053
sg47
I29596
sg48
I28347
sg49
I30542
sg50
I35383
sg51
I27350
sg52
I26403
sg53
I6441
sg54
I2100
sg55
I22875
sg56
I8312
sg57
I30093
sg58
I25324
sg59
I2303
sg60
I27115
sg61
I21709
sg62
I27909
sg63
I31279
sg64
I21225
sg65
I26172
sg66
I29172
sg67
I7962
sg68
I2065
sg69
I23667
sg70
I1717
sg71
I9016
sg72
I3258
sg73
I4645
sg74
I2617
sg75
I27517
sg76
I7516
sg77
I25002
sg78
I24985
sg79
I25171
sg80
I29415
sg81
I6555
sg82
I28019
sg83
I2937
sg84
I3055
sg85
I22505
sg86
I2904
sg87
I27743
sg88
I30446
sg89
I19050
sg90
I7328
sg91
I272
sg92
I27156
sg93
I26288
sg94
I27608
sg95
I26986
sg96
I9694
sg97
I27715
sg98
I27056
sg99
I7836
sg100
I30510
sg101
I29259
sg102
I7733
ssg51
(dp150
g2
I4774
sg4
I2753
sg5
I23323
sg6
I2119
sg7
I27349
sg8
I27070
sg9
I35221
sg10
I3549
sg11
I16856
sg12
I27086
sg13
I24053
sg14
I23392
sg15
I2127
sg16
I1988
sg17
I26525
sg18
I28734
sg19
I5824
sg20
I2147
sg21
I18327
sg22
I1614
sg23
I19855
sg24
I21787
sg25
I22755
sg26
I38043
sg27
I4879
sg28
I21036
sg29
I20782
sg30
I7442
sg31
I2118
sg32
I7902
sg33
I25401
sg34
I35768
sg35
I25560
sg36
I8641
sg37
I4117
sg38
I1867
sg39
I6783
sg40
I750
sg41
I4006
sg42
I8887
sg43
I2557
sg44
I28071
sg45
I26264
sg46
I38164
sg47
I36718
sg48
I27440
sg49
I29354
sg50
I27350
sg51
I38679
sg52
I30366
sg53
I6506
sg54
I2128
sg55
I21975
sg56
I8423
sg57
I29016
sg58
I24055
sg59
I2087
sg60
I32213
sg61
I22428
sg62
I27296
sg63
I26721
sg64
I21084
sg65
I24814
sg66
I35324
sg67
I7956
sg68
I2080
sg69
I24233
sg70
I1912
sg71
I9065
sg72
I3187
sg73
I4775
sg74
I2482
sg75
I35283
sg76
I7584
sg77
I26069
sg78
I25097
sg79
I25759
sg80
I36324
sg81
I6698
sg82
I28587
sg83
I3006
sg84
I3124
sg85
I22604
sg86
I2704
sg87
I26460
sg88
I26046
sg89
I19092
sg90
I7397
sg91
I278
sg92
I26857
sg93
I27106
sg94
I26776
sg95
I27549
sg96
I9853
sg97
I29783
sg98
I26126
sg99
I7907
sg100
I26173
sg101
I28633
sg102
I7541
ssg52
(dp151
g2
I4740
sg4
I2791
sg5
I22001
sg6
I2120
sg7
I26229
sg8
I25945
sg9
I31733
sg10
I3520
sg11
I15847
sg12
I25467
sg13
I21318
sg14
I22604
sg15
I2125
sg16
I1984
sg17
I25081
sg18
I26805
sg19
I5728
sg20
I2133
sg21
I17427
sg22
I1618
sg23
I19631
sg24
I20601
sg25
I21197
sg26
I33189
sg27
I4861
sg28
I20145
sg29
I18980
sg30
I7393
sg31
I2118
sg32
I7798
sg33
I24222
sg34
I33168
sg35
I23445
sg36
I8073
sg37
I4097
sg38
I1869
sg39
I6692
sg40
I730
sg41
I4223
sg42
I9057
sg43
I2462
sg44
I26257
sg45
I24855
sg46
I33240
sg47
I33644
sg48
I25539
sg49
I27609
sg50
I26403
sg51
I30366
sg52
I37002
sg53
I6475
sg54
I2130
sg55
I21091
sg56
I8333
sg57
I27218
sg58
I23210
sg59
I2086
sg60
I30926
sg61
I21494
sg62
I25828
sg63
I25835
sg64
I20067
sg65
I23826
sg66
I32561
sg67
I7895
sg68
I2078
sg69
I22224
sg70
I1928
sg71
I8905
sg72
I2978
sg73
I4738
sg74
I2437
sg75
I30470
sg76
I7524
sg77
I24752
sg78
I23671
sg79
I24206
sg80
I33567
sg81
I6658
sg82
I26445
sg83
I2948
sg84
I3122
sg85
I21495
sg86
I2694
sg87
I25170
sg88
I24814
sg89
I18504
sg90
I7232
sg91
I278
sg92
I25285
sg93
I25605
sg94
I25069
sg95
I26028
sg96
I9674
sg97
I27610
sg98
I24792
sg99
I7802
sg100
I25190
sg101
I26831
sg102
I7428
ssg53
(dp152
g2
I5094
sg4
I2128
sg5
I5986
sg6
I1716
sg7
I6453
sg8
I6424
sg9
I6446
sg10
I3342
sg11
I3644
sg12
I6324
sg13
I6208
sg14
I6149
sg15
I1713
sg16
I1761
sg17
I6129
sg18
I6091
sg19
I4455
sg20
I1435
sg21
I5525
sg22
I1293
sg23
I5999
sg24
I5935
sg25
I6146
sg26
I6508
sg27
I5591
sg28
I6202
sg29
I4865
sg30
I5900
sg31
I1715
sg32
I7276
sg33
I5589
sg34
I6502
sg35
I5351
sg36
I6395
sg37
I4136
sg38
I1491
sg39
I6195
sg40
I352
sg41
I4064
sg42
I3716
sg43
I2026
sg44
I6090
sg45
I5754
sg46
I6491
sg47
I6551
sg48
I5216
sg49
I6425
sg50
I6441
sg51
I6506
sg52
I6475
sg53
I9475
sg54
I1728
sg55
I5532
sg56
I4006
sg57
I6333
sg58
I5271
sg59
I1577
sg60
I6470
sg61
I6072
sg62
I6428
sg63
I6413
sg64
I4956
sg65
I5627
sg66
I6515
sg67
I7341
sg68
I1724
sg69
I6089
sg70
I1285
sg71
I6526
sg72
I2298
sg73
I3337
sg74
I1702
sg75
I6289
sg76
I6489
sg77
I6227
sg78
I6200
sg79
I6239
sg80
I6426
sg81
I5973
sg82
I6268
sg83
I2148
sg84
I3046
sg85
I6104
sg86
I2120
sg87
I6373
sg88
I6409
sg89
I5309
sg90
I6312
sg91
I237
sg92
I6120
sg93
I6231
sg94
I5684
sg95
I6382
sg96
I6548
sg97
I6393
sg98
I5518
sg99
I5816
sg100
I6344
sg101
I6432
sg102
I5952
ssg54
(dp153
g2
I1366
sg4
I1549
sg5
I1847
sg6
I3001
sg7
I2124
sg8
I2121
sg9
I2036
sg10
I1618
sg11
I1624
sg12
I2108
sg13
I2115
sg14
I2101
sg15
I3029
sg16
I1664
sg17
I2114
sg18
I2105
sg19
I1267
sg20
I1978
sg21
I1983
sg22
I1608
sg23
I2064
sg24
I2078
sg25
I2122
sg26
I2133
sg27
I1206
sg28
I2086
sg29
I1783
sg30
I1344
sg31
I2998
sg32
I1976
sg33
I2057
sg34
I2131
sg35
I2089
sg36
I2013
sg37
I1740
sg38
I2058
sg39
I1870
sg40
I245
sg41
I1254
sg42
I1740
sg43
I1896
sg44
I2121
sg45
I2084
sg46
I2111
sg47
I2135
sg48
I1506
sg49
I2121
sg50
I2100
sg51
I2128
sg52
I2130
sg53
I1728
sg54
I3123
sg55
I2022
sg56
I1659
sg57
I2107
sg58
I1741
sg59
I1804
sg60
I2127
sg61
I2030
sg62
I2107
sg63
I2093
sg64
I2062
sg65
I1965
sg66
I2131
sg67
I1971
sg68
I2767
sg69
I2080
sg70
I1220
sg71
I1696
sg72
I1980
sg73
I1964
sg74
I2146
sg75
I2133
sg76
I2007
sg77
I2001
sg78
I2133
sg79
I2110
sg80
I2096
sg81
I1755
sg82
I2104
sg83
I1831
sg84
I1229
sg85
I2105
sg86
I2254
sg87
I2111
sg88
I2117
sg89
I2069
sg90
I1700
sg91
I227
sg92
I2104
sg93
I2123
sg94
I2118
sg95
I2117
sg96
I1981
sg97
I2114
sg98
I1792
sg99
I1681
sg100
I2118
sg101
I2117
sg102
I1968
ssg55
(dp154
g2
I4117
sg4
I2312
sg5
I18951
sg6
I2017
sg7
I22822
sg8
I22823
sg9
I22867
sg10
I3127
sg11
I13204
sg12
I21373
sg13
I18399
sg14
I19561
sg15
I2040
sg16
I1681
sg17
I22488
sg18
I23408
sg19
I4666
sg20
I1992
sg21
I16961
sg22
I1506
sg23
I19751
sg24
I18192
sg25
I18272
sg26
I23455
sg27
I4042
sg28
I16563
sg29
I17918
sg30
I6107
sg31
I2016
sg32
I6661
sg33
I20904
sg34
I23775
sg35
I20294
sg36
I6886
sg37
I3829
sg38
I1700
sg39
I5900
sg40
I530
sg41
I3888
sg42
I7204
sg43
I1976
sg44
I23285
sg45
I21493
sg46
I23413
sg47
I23745
sg48
I22073
sg49
I23833
sg50
I22875
sg51
I21975
sg52
I21091
sg53
I5532
sg54
I2022
sg55
I31000
sg56
I7830
sg57
I23896
sg58
I19500
sg59
I1774
sg60
I20985
sg61
I17878
sg62
I22613
sg63
I22494
sg64
I17653
sg65
I20316
sg66
I23341
sg67
I6642
sg68
I1982
sg69
I19363
sg70
I1741
sg71
I8435
sg72
I2157
sg73
I4451
sg74
I2103
sg75
I22114
sg76
I6946
sg77
I20720
sg78
I20920
sg79
I20425
sg80
I23634
sg81
I5872
sg82
I22371
sg83
I2107
sg84
I2830
sg85
I19071
sg86
I2158
sg87
I22042
sg88
I21858
sg89
I16095
sg90
I6293
sg91
I169
sg92
I22196
sg93
I21389
sg94
I21912
sg95
I21484
sg96
I8029
sg97
I22279
sg98
I21300
sg99
I7136
sg100
I22183
sg101
I23507
sg102
I6298
ssg56
(dp155
g2
I2829
sg4
I1939
sg5
I7509
sg6
I1674
sg7
I8331
sg8
I8134
sg9
I8180
sg10
I2548
sg11
I4489
sg12
I7997
sg13
I7923
sg14
I7638
sg15
I1656
sg16
I1417
sg17
I8137
sg18
I8086
sg19
I3072
sg20
I1512
sg21
I7305
sg22
I1287
sg23
I7497
sg24
I7936
sg25
I7952
sg26
I8412
sg27
I2611
sg28
I7468
sg29
I7624
sg30
I4503
sg31
I1674
sg32
I4865
sg33
I7369
sg34
I8440
sg35
I6395
sg36
I4397
sg37
I2998
sg38
I1409
sg39
I4189
sg40
I375
sg41
I2338
sg42
I7458
sg43
I1440
sg44
I7505
sg45
I7021
sg46
I8369
sg47
I8463
sg48
I7404
sg49
I8424
sg50
I8312
sg51
I8423
sg52
I8333
sg53
I4006
sg54
I1659
sg55
I7830
sg56
I11363
sg57
I8273
sg58
I6467
sg59
I1477
sg60
I8364
sg61
I7654
sg62
I8277
sg63
I8256
sg64
I5455
sg65
I7433
sg66
I8438
sg67
I5005
sg68
I1503
sg69
I8037
sg70
I1378
sg71
I4827
sg72
I1530
sg73
I4433
sg74
I1518
sg75
I8119
sg76
I5254
sg77
I7859
sg78
I8054
sg79
I7897
sg80
I8448
sg81
I4057
sg82
I8242
sg83
I1809
sg84
I2021
sg85
I7929
sg86
I1759
sg87
I8135
sg88
I8266
sg89
I7643
sg90
I3950
sg91
I261
sg92
I8220
sg93
I7934
sg94
I7034
sg95
I8094
sg96
I4627
sg97
I8222
sg98
I7273
sg99
I3689
sg100
I8034
sg101
I8346
sg102
I4676
ssg57
(dp156
g2
I4668
sg4
I2914
sg5
I23348
sg6
I2094
sg7
I29909
sg8
I29641
sg9
I29302
sg10
I3448
sg11
I17282
sg12
I28467
sg13
I23511
sg14
I24535
sg15
I2099
sg16
I1924
sg17
I30076
sg18
I31335
sg19
I5710
sg20
I2118
sg21
I18841
sg22
I1606
sg23
I21709
sg24
I22084
sg25
I22172
sg26
I30626
sg27
I4740
sg28
I21046
sg29
I21528
sg30
I7482
sg31
I2094
sg32
I7780
sg33
I27501
sg34
I31136
sg35
I32555
sg36
I8458
sg37
I4057
sg38
I1847
sg39
I6649
sg40
I725
sg41
I4139
sg42
I8991
sg43
I2508
sg44
I31000
sg45
I29881
sg46
I30743
sg47
I31303
sg48
I30134
sg49
I32472
sg50
I30093
sg51
I29016
sg52
I27218
sg53
I6333
sg54
I2107
sg55
I23896
sg56
I8273
sg57
I38034
sg58
I26086
sg59
I2253
sg60
I27367
sg61
I22236
sg62
I29380
sg63
I29355
sg64
I22280
sg65
I26772
sg66
I30913
sg67
I7864
sg68
I2057
sg69
I24167
sg70
I1878
sg71
I9002
sg72
I3297
sg73
I4668
sg74
I2579
sg75
I29341
sg76
I7499
sg77
I26002
sg78
I26284
sg79
I26106
sg80
I31094
sg81
I6559
sg82
I29703
sg83
I2905
sg84
I3059
sg85
I23228
sg86
I2828
sg87
I28590
sg88
I28308
sg89
I19425
sg90
I7255
sg91
I275
sg92
I28325
sg93
I27229
sg94
I29254
sg95
I28064
sg96
I9573
sg97
I29301
sg98
I29536
sg99
I7797
sg100
I28787
sg101
I30880
sg102
I7701
ssg58
(dp157
g2
I4073
sg4
I2250
sg5
I19948
sg6
I1734
sg7
I25389
sg8
I25048
sg9
I24726
sg10
I2938
sg11
I15703
sg12
I23481
sg13
I19827
sg14
I20188
sg15
I1734
sg16
I1601
sg17
I24940
sg18
I26877
sg19
I5409
sg20
I1767
sg21
I15707
sg22
I1232
sg23
I18742
sg24
I19165
sg25
I19095
sg26
I25743
sg27
I4318
sg28
I18132
sg29
I16897
sg30
I6105
sg31
I1731
sg32
I6315
sg33
I30291
sg34
I25810
sg35
I23711
sg36
I7334
sg37
I3538
sg38
I1477
sg39
I5367
sg40
I758
sg41
I4090
sg42
I8190
sg43
I2174
sg44
I25772
sg45
I24313
sg46
I25671
sg47
I25948
sg48
I25711
sg49
I26490
sg50
I25324
sg51
I24055
sg52
I23210
sg53
I5271
sg54
I1741
sg55
I19500
sg56
I6467
sg57
I26086
sg58
I32183
sg59
I1636
sg60
I22915
sg61
I19543
sg62
I26007
sg63
I25049
sg64
I19195
sg65
I30012
sg66
I25423
sg67
I6333
sg68
I1687
sg69
I20350
sg70
I1673
sg71
I7666
sg72
I2673
sg73
I4062
sg74
I2019
sg75
I23935
sg76
I5807
sg77
I22199
sg78
I21775
sg79
I21791
sg80
I25772
sg81
I5354
sg82
I24561
sg83
I2476
sg84
I3017
sg85
I19378
sg86
I2238
sg87
I30119
sg88
I23924
sg89
I17008
sg90
I6488
sg91
I275
sg92
I23525
sg93
I23012
sg94
I26807
sg95
I23414
sg96
I8725
sg97
I24463
sg98
I23983
sg99
I7133
sg100
I24741
sg101
I27494
sg102
I6177
ssg59
(dp158
g2
I1410
sg4
I2149
sg5
I1847
sg6
I1807
sg7
I2317
sg8
I2320
sg9
I1982
sg10
I1704
sg11
I1483
sg12
I2234
sg13
I2299
sg14
I2196
sg15
I1809
sg16
I1938
sg17
I2333
sg18
I2334
sg19
I1353
sg20
I1751
sg21
I1742
sg22
I1582
sg23
I2168
sg24
I2056
sg25
I2191
sg26
I2078
sg27
I1101
sg28
I2207
sg29
I1510
sg30
I1670
sg31
I1807
sg32
I1966
sg33
I1871
sg34
I2145
sg35
I2266
sg36
I1934
sg37
I1591
sg38
I1903
sg39
I1648
sg40
I273
sg41
I1065
sg42
I1743
sg43
I1932
sg44
I2305
sg45
I2310
sg46
I2070
sg47
I2358
sg48
I1692
sg49
I2320
sg50
I2303
sg51
I2087
sg52
I2086
sg53
I1577
sg54
I1804
sg55
I1774
sg56
I1477
sg57
I2253
sg58
I1636
sg59
I3298
sg60
I2302
sg61
I2106
sg62
I1949
sg63
I2303
sg64
I2160
sg65
I1854
sg66
I2317
sg67
I1933
sg68
I1819
sg69
I2320
sg70
I1234
sg71
I1677
sg72
I2514
sg73
I1838
sg74
I2304
sg75
I2349
sg76
I2014
sg77
I2059
sg78
I2195
sg79
I2249
sg80
I2241
sg81
I1665
sg82
I2222
sg83
I2155
sg84
I1139
sg85
I2256
sg86
I2462
sg87
I2056
sg88
I2316
sg89
I2051
sg90
I1732
sg91
I253
sg92
I2244
sg93
I2175
sg94
I2079
sg95
I2188
sg96
I2032
sg97
I2143
sg98
I2018
sg99
I1536
sg100
I2314
sg101
I2079
sg102
I1905
ssg60
(dp159
g2
I4757
sg4
I2959
sg5
I22460
sg6
I2116
sg7
I26876
sg8
I26595
sg9
I30978
sg10
I3511
sg11
I15560
sg12
I25714
sg13
I23315
sg14
I22878
sg15
I2124
sg16
I1991
sg17
I25313
sg18
I26998
sg19
I5791
sg20
I2134
sg21
I18209
sg22
I1617
sg23
I19962
sg24
I20870
sg25
I22444
sg26
I32437
sg27
I4854
sg28
I20636
sg29
I19641
sg30
I7592
sg31
I2114
sg32
I7861
sg33
I24256
sg34
I32240
sg35
I23961
sg36
I8555
sg37
I4087
sg38
I1874
sg39
I6732
sg40
I736
sg41
I3977
sg42
I8814
sg43
I2464
sg44
I26496
sg45
I25019
sg46
I32482
sg47
I32907
sg48
I25775
sg49
I27836
sg50
I27115
sg51
I32213
sg52
I30926
sg53
I6470
sg54
I2127
sg55
I20985
sg56
I8364
sg57
I27367
sg58
I22915
sg59
I2302
sg60
I35949
sg61
I21909
sg62
I25938
sg63
I26525
sg64
I20403
sg65
I23539
sg66
I31999
sg67
I7919
sg68
I2077
sg69
I23676
sg70
I1752
sg71
I9015
sg72
I3238
sg73
I4750
sg74
I2622
sg75
I31701
sg76
I7545
sg77
I25015
sg78
I24246
sg79
I24800
sg80
I32911
sg81
I6649
sg82
I26826
sg83
I3000
sg84
I3110
sg85
I21890
sg86
I2913
sg87
I25260
sg88
I25945
sg89
I18501
sg90
I7322
sg91
I277
sg92
I25573
sg93
I25628
sg94
I25153
sg95
I26150
sg96
I9830
sg97
I27809
sg98
I25000
sg99
I7849
sg100
I26054
sg101
I26942
sg102
I7536
ssg61
(dp160
g2
I4402
sg4
I2669
sg5
I21303
sg6
I2048
sg7
I21752
sg8
I21473
sg9
I22761
sg10
I3345
sg11
I13993
sg12
I21030
sg13
I21678
sg14
I19545
sg15
I2030
sg16
I1893
sg17
I21470
sg18
I22099
sg19
I5373
sg20
I2034
sg21
I15757
sg22
I1567
sg23
I17216
sg24
I19464
sg25
I20580
sg26
I23425
sg27
I4562
sg28
I18786
sg29
I16162
sg30
I6941
sg31
I2047
sg32
I7357
sg33
I20621
sg34
I23569
sg35
I19283
sg36
I7637
sg37
I3925
sg38
I1817
sg39
I6363
sg40
I702
sg41
I3818
sg42
I8212
sg43
I2322
sg44
I21264
sg45
I20300
sg46
I23306
sg47
I23584
sg48
I20895
sg49
I22391
sg50
I21709
sg51
I22428
sg52
I21494
sg53
I6072
sg54
I2030
sg55
I17878
sg56
I7654
sg57
I22236
sg58
I19543
sg59
I2106
sg60
I21909
sg61
I30984
sg62
I21805
sg63
I21499
sg64
I16929
sg65
I20269
sg66
I23052
sg67
I7453
sg68
I2020
sg69
I22097
sg70
I1862
sg71
I8353
sg72
I2973
sg73
I4452
sg74
I2342
sg75
I22362
sg76
I7177
sg77
I21083
sg78
I19988
sg79
I21709
sg80
I23560
sg81
I6267
sg82
I21679
sg83
I2815
sg84
I2956
sg85
I20796
sg86
I2670
sg87
I21625
sg88
I21426
sg89
I17038
sg90
I6942
sg91
I268
sg92
I21158
sg93
I22419
sg94
I20634
sg95
I23089
sg96
I8959
sg97
I22263
sg98
I20217
sg99
I7305
sg100
I21089
sg101
I22247
sg102
I6976
ssg62
(dp161
g2
I4691
sg4
I2544
sg5
I22451
sg6
I2097
sg7
I27842
sg8
I27677
sg9
I27802
sg10
I3483
sg11
I16221
sg12
I26427
sg13
I22412
sg14
I23295
sg15
I2102
sg16
I1984
sg17
I27180
sg18
I30517
sg19
I5492
sg20
I2132
sg21
I18542
sg22
I1608
sg23
I20805
sg24
I21339
sg25
I21445
sg26
I28766
sg27
I4874
sg28
I20615
sg29
I20252
sg30
I7145
sg31
I2095
sg32
I7669
sg33
I27179
sg34
I29255
sg35
I25694
sg36
I8351
sg37
I4047
sg38
I1869
sg39
I6679
sg40
I740
sg41
I4162
sg42
I8824
sg43
I2518
sg44
I28402
sg45
I26847
sg46
I28842
sg47
I29328
sg48
I29288
sg49
I29939
sg50
I27909
sg51
I27296
sg52
I25828
sg53
I6428
sg54
I2107
sg55
I22613
sg56
I8277
sg57
I29380
sg58
I26007
sg59
I1949
sg60
I25938
sg61
I21805
sg62
I36133
sg63
I27671
sg64
I20994
sg65
I26841
sg66
I28764
sg67
I7761
sg68
I2069
sg69
I23264
sg70
I1851
sg71
I8907
sg72
I3013
sg73
I4651
sg74
I2314
sg75
I27346
sg76
I7322
sg77
I24823
sg78
I24950
sg79
I24775
sg80
I29194
sg81
I6572
sg82
I27691
sg83
I2841
sg84
I3039
sg85
I22079
sg86
I2541
sg87
I28479
sg88
I26169
sg89
I19071
sg90
I7259
sg91
I277
sg92
I26668
sg93
I25691
sg94
I28652
sg95
I26520
sg96
I9509
sg97
I27503
sg98
I26679
sg99
I7812
sg100
I26830
sg101
I30625
sg102
I7497
ssg63
(dp162
g2
I4742
sg4
I2941
sg5
I22106
sg6
I2085
sg7
I31206
sg8
I30855
sg9
I27196
sg10
I3470
sg11
I16255
sg12
I26172
sg13
I22368
sg14
I23151
sg15
I2092
sg16
I1953
sg17
I27666
sg18
I28983
sg19
I5688
sg20
I2120
sg21
I18607
sg22
I1610
sg23
I21338
sg24
I21279
sg25
I21513
sg26
I28272
sg27
I4802
sg28
I20723
sg29
I19895
sg30
I7474
sg31
I2082
sg32
I7788
sg33
I26335
sg34
I28708
sg35
I25662
sg36
I8448
sg37
I4053
sg38
I1866
sg39
I6625
sg40
I730
sg41
I4173
sg42
I8930
sg43
I2435
sg44
I28478
sg45
I27072
sg46
I28364
sg47
I28953
sg48
I27667
sg49
I29988
sg50
I31279
sg51
I26721
sg52
I25835
sg53
I6413
sg54
I2093
sg55
I22494
sg56
I8256
sg57
I29355
sg58
I25049
sg59
I2303
sg60
I26525
sg61
I21499
sg62
I27671
sg63
I35501
sg64
I20945
sg65
I25831
sg66
I28545
sg67
I7839
sg68
I2066
sg69
I23167
sg70
I1720
sg71
I8958
sg72
I3206
sg73
I4678
sg74
I2624
sg75
I26893
sg76
I7511
sg77
I24557
sg78
I24606
sg79
I24656
sg80
I28780
sg81
I6604
sg82
I27387
sg83
I2929
sg84
I3065
sg85
I22079
sg86
I2885
sg87
I27290
sg88
I29193
sg89
I19057
sg90
I7285
sg91
I274
sg92
I26682
sg93
I25690
sg94
I26921
sg95
I26336
sg96
I9656
sg97
I27052
sg98
I26690
sg99
I7832
sg100
I29653
sg101
I28594
sg102
I7720
ssg64
(dp163
g2
I3814
sg4
I2712
sg5
I17652
sg6
I2051
sg7
I21195
sg8
I21049
sg9
I22124
sg10
I3217
sg11
I15480
sg12
I23136
sg13
I17899
sg14
I20610
sg15
I2065
sg16
I1824
sg17
I20778
sg18
I22085
sg19
I4648
sg20
I1950
sg21
I14148
sg22
I1498
sg23
I16784
sg24
I16796
sg25
I17089
sg26
I22390
sg27
I3910
sg28
I16553
sg29
I15979
sg30
I4987
sg31
I2049
sg32
I5757
sg33
I20068
sg34
I22546
sg35
I21333
sg36
I6906
sg37
I3929
sg38
I1766
sg39
I4907
sg40
I700
sg41
I4049
sg42
I7577
sg43
I2330
sg44
I22445
sg45
I21393
sg46
I22362
sg47
I22784
sg48
I20968
sg49
I22677
sg50
I21225
sg51
I21084
sg52
I20067
sg53
I4956
sg54
I2062
sg55
I17653
sg56
I5455
sg57
I22280
sg58
I19195
sg59
I2160
sg60
I20403
sg61
I16929
sg62
I20994
sg63
I20945
sg64
I30877
sg65
I18739
sg66
I22768
sg67
I5543
sg68
I1978
sg69
I18458
sg70
I1747
sg71
I6595
sg72
I3051
sg73
I4402
sg74
I2533
sg75
I21269
sg76
I4984
sg77
I19744
sg78
I23595
sg79
I20059
sg80
I22608
sg81
I5389
sg82
I23871
sg83
I2847
sg84
I3006
sg85
I17854
sg86
I2721
sg87
I20186
sg88
I20424
sg89
I14916
sg90
I6054
sg91
I277
sg92
I23108
sg93
I20626
sg94
I21780
sg95
I20913
sg96
I7959
sg97
I21398
sg98
I20552
sg99
I6673
sg100
I20882
sg101
I21848
sg102
I5429
ssg65
(dp164
g2
I4039
sg4
I2266
sg5
I20624
sg6
I1954
sg7
I26208
sg8
I25831
sg9
I25387
sg10
I2954
sg11
I15598
sg12
I24235
sg13
I20648
sg14
I21154
sg15
I1957
sg16
I1841
sg17
I25735
sg18
I27859
sg19
I5149
sg20
I1993
sg21
I16519
sg22
I1462
sg23
I19084
sg24
I20124
sg25
I20120
sg26
I26384
sg27
I4459
sg28
I18902
sg29
I17924
sg30
I6727
sg31
I1952
sg32
I6933
sg33
I30432
sg34
I26468
sg35
I23053
sg36
I7462
sg37
I3287
sg38
I1712
sg39
I5927
sg40
I761
sg41
I3724
sg42
I8168
sg43
I2386
sg44
I25688
sg45
I24505
sg46
I26335
sg47
I26594
sg48
I26726
sg49
I27309
sg50
I26172
sg51
I24814
sg52
I23826
sg53
I5627
sg54
I1965
sg55
I20316
sg56
I7433
sg57
I26772
sg58
I30012
sg59
I1854
sg60
I23539
sg61
I20269
sg62
I26841
sg63
I25831
sg64
I18739
sg65
I32678
sg66
I26109
sg67
I7178
sg68
I1820
sg69
I21193
sg70
I1735
sg71
I7957
sg72
I2870
sg73
I4109
sg74
I2213
sg75
I24609
sg76
I6620
sg77
I22901
sg78
I22478
sg79
I22444
sg80
I26426
sg81
I5858
sg82
I25245
sg83
I2669
sg84
I2712
sg85
I20363
sg86
I2442
sg87
I30968
sg88
I24726
sg89
I17760
sg90
I6393
sg91
I275
sg92
I24282
sg93
I23706
sg94
I26453
sg95
I24215
sg96
I8583
sg97
I25151
sg98
I25192
sg99
I6844
sg100
I25154
sg101
I28301
sg102
I6817
ssg66
(dp165
g2
I4766
sg4
I2971
sg5
I23980
sg6
I2119
sg7
I28905
sg8
I28633
sg9
I36106
sg10
I3520
sg11
I18396
sg12
I29066
sg13
I24235
sg14
I24699
sg15
I2128
sg16
I1983
sg17
I28703
sg18
I30413
sg19
I5821
sg20
I2142
sg21
I18842
sg22
I1617
sg23
I21555
sg24
I22843
sg25
I22796
sg26
I38278
sg27
I4879
sg28
I21979
sg29
I21648
sg30
I7674
sg31
I2117
sg32
I7919
sg33
I26872
sg34
I39552
sg35
I27605
sg36
I8643
sg37
I4118
sg38
I1871
sg39
I6818
sg40
I751
sg41
I4264
sg42
I9230
sg43
I2560
sg44
I30154
sg45
I28372
sg46
I38362
sg47
I40164
sg48
I29150
sg49
I31523
sg50
I29172
sg51
I35324
sg52
I32561
sg53
I6515
sg54
I2131
sg55
I23341
sg56
I8438
sg57
I30913
sg58
I25423
sg59
I2317
sg60
I31999
sg61
I23052
sg62
I28764
sg63
I28545
sg64
I22768
sg65
I26109
sg66
I41567
sg67
I7980
sg68
I2083
sg69
I24967
sg70
I1938
sg71
I9125
sg72
I3429
sg73
I4766
sg74
I2634
sg75
I36462
sg76
I7600
sg77
I27278
sg78
I26821
sg79
I27010
sg80
I39802
sg81
I6712
sg82
I29748
sg83
I3007
sg84
I3123
sg85
I23834
sg86
I2941
sg87
I27861
sg88
I27421
sg89
I20040
sg90
I7365
sg91
I280
sg92
I28574
sg93
I28662
sg94
I28442
sg95
I29348
sg96
I9905
sg97
I30982
sg98
I28084
sg99
I7944
sg100
I27944
sg101
I30147
sg102
I7922
ssg67
(dp166
g2
I5129
sg4
I2516
sg5
I7359
sg6
I1963
sg7
I7940
sg8
I7787
sg9
I8041
sg10
I3559
sg11
I4404
sg12
I7796
sg13
I7663
sg14
I7680
sg15
I1957
sg16
I1923
sg17
I7606
sg18
I7619
sg19
I5326
sg20
I1641
sg21
I6656
sg22
I1467
sg23
I7250
sg24
I7427
sg25
I7588
sg26
I7946
sg27
I5497
sg28
I7609
sg29
I6103
sg30
I7585
sg31
I1962
sg32
I9725
sg33
I6892
sg34
I7985
sg35
I6249
sg36
I7413
sg37
I4111
sg38
I1761
sg39
I7223
sg40
I462
sg41
I4219
sg42
I4674
sg43
I2228
sg44
I7005
sg45
I6747
sg46
I7952
sg47
I7981
sg48
I6530
sg49
I7912
sg50
I7962
sg51
I7956
sg52
I7895
sg53
I7341
sg54
I1971
sg55
I6642
sg56
I5005
sg57
I7864
sg58
I6333
sg59
I1933
sg60
I7919
sg61
I7453
sg62
I7761
sg63
I7839
sg64
I5543
sg65
I7178
sg66
I7980
sg67
I11719
sg68
I1931
sg69
I7600
sg70
I1395
sg71
I7952
sg72
I2748
sg73
I3480
sg74
I2090
sg75
I7761
sg76
I9171
sg77
I7822
sg78
I7531
sg79
I7746
sg80
I7916
sg81
I6425
sg82
I7741
sg83
I2542
sg84
I3125
sg85
I7482
sg86
I2560
sg87
I7834
sg88
I7843
sg89
I6641
sg90
I6899
sg91
I233
sg92
I7554
sg93
I7741
sg94
I6580
sg95
I7807
sg96
I7530
sg97
I7829
sg98
I6956
sg99
I6309
sg100
I7629
sg101
I7919
sg102
I7151
ssg68
(dp167
g2
I1481
sg4
I1648
sg5
I1802
sg6
I2837
sg7
I2049
sg8
I2072
sg9
I1981
sg10
I1707
sg11
I1419
sg12
I2036
sg13
I2066
sg14
I2018
sg15
I2734
sg16
I1672
sg17
I2070
sg18
I2070
sg19
I1258
sg20
I1973
sg21
I1938
sg22
I1613
sg23
I2030
sg24
I2040
sg25
I2016
sg26
I2080
sg27
I1140
sg28
I2037
sg29
I1654
sg30
I1309
sg31
I2835
sg32
I1851
sg33
I1991
sg34
I2080
sg35
I2040
sg36
I1981
sg37
I1715
sg38
I2085
sg39
I1843
sg40
I247
sg41
I1212
sg42
I1592
sg43
I1921
sg44
I2072
sg45
I2064
sg46
I2064
sg47
I2085
sg48
I1350
sg49
I2075
sg50
I2065
sg51
I2080
sg52
I2078
sg53
I1724
sg54
I2767
sg55
I1982
sg56
I1503
sg57
I2057
sg58
I1687
sg59
I1819
sg60
I2077
sg61
I2020
sg62
I2069
sg63
I2066
sg64
I1978
sg65
I1820
sg66
I2083
sg67
I1931
sg68
I3188
sg69
I2029
sg70
I1196
sg71
I1676
sg72
I2008
sg73
I1908
sg74
I2145
sg75
I2084
sg76
I1970
sg77
I1951
sg78
I2058
sg79
I2057
sg80
I2016
sg81
I1744
sg82
I2031
sg83
I1829
sg84
I1217
sg85
I2050
sg86
I2043
sg87
I2062
sg88
I2070
sg89
I2040
sg90
I1668
sg91
I227
sg92
I2048
sg93
I2064
sg94
I2061
sg95
I2059
sg96
I1965
sg97
I2074
sg98
I1749
sg99
I1660
sg100
I2068
sg101
I2047
sg102
I1937
ssg69
(dp168
g2
I4548
sg4
I2955
sg5
I24821
sg6
I2065
sg7
I23638
sg8
I23489
sg9
I24212
sg10
I3360
sg11
I15244
sg12
I22846
sg13
I27800
sg14
I20274
sg15
I2075
sg16
I1904
sg17
I23222
sg18
I23850
sg19
I5441
sg20
I2107
sg21
I16791
sg22
I1598
sg23
I18625
sg24
I20937
sg25
I24606
sg26
I24818
sg27
I4648
sg28
I19970
sg29
I17904
sg30
I7275
sg31
I2063
sg32
I7551
sg33
I21599
sg34
I25141
sg35
I21144
sg36
I8072
sg37
I3908
sg38
I1845
sg39
I6450
sg40
I719
sg41
I3692
sg42
I8189
sg43
I2422
sg44
I23164
sg45
I22426
sg46
I24860
sg47
I25310
sg48
I22652
sg49
I24390
sg50
I23667
sg51
I24233
sg52
I22224
sg53
I6089
sg54
I2080
sg55
I19363
sg56
I8037
sg57
I24167
sg58
I20350
sg59
I2320
sg60
I23676
sg61
I22097
sg62
I23264
sg63
I23167
sg64
I18458
sg65
I21193
sg66
I24967
sg67
I7600
sg68
I2029
sg69
I32996
sg70
I1864
sg71
I8529
sg72
I3216
sg73
I4603
sg74
I2597
sg75
I24261
sg76
I7230
sg77
I22340
sg78
I21806
sg79
I23586
sg80
I25198
sg81
I6404
sg82
I23479
sg83
I2868
sg84
I2925
sg85
I24684
sg86
I2890
sg87
I22670
sg88
I22460
sg89
I18217
sg90
I6955
sg91
I277
sg92
I22938
sg93
I24312
sg94
I22102
sg95
I25127
sg96
I8885
sg97
I23941
sg98
I22256
sg99
I7378
sg100
I22919
sg101
I23712
sg102
I7291
ssg70
(dp169
g2
I1126
sg4
I1253
sg5
I1871
sg6
I1212
sg7
I1724
sg8
I1729
sg9
I1811
sg10
I1365
sg11
I1620
sg12
I1903
sg13
I1869
sg14
I1717
sg15
I1230
sg16
I1210
sg17
I1887
sg18
I1889
sg19
I989
sg20
I1120
sg21
I1528
sg22
I1166
sg23
I1665
sg24
I1861
sg25
I1859
sg26
I1913
sg27
I940
sg28
I1698
sg29
I1543
sg30
I1083
sg31
I1209
sg32
I1415
sg33
I1802
sg34
I1936
sg35
I1871
sg36
I1475
sg37
I1310
sg38
I1102
sg39
I1360
sg40
I267
sg41
I992
sg42
I1420
sg43
I1179
sg44
I1892
sg45
I1887
sg46
I1929
sg47
I1938
sg48
I1561
sg49
I1909
sg50
I1717
sg51
I1912
sg52
I1928
sg53
I1285
sg54
I1220
sg55
I1741
sg56
I1378
sg57
I1878
sg58
I1673
sg59
I1234
sg60
I1752
sg61
I1862
sg62
I1851
sg63
I1720
sg64
I1747
sg65
I1735
sg66
I1938
sg67
I1395
sg68
I1196
sg69
I1864
sg70
I2622
sg71
I1416
sg72
I1250
sg73
I1630
sg74
I1226
sg75
I1763
sg76
I1430
sg77
I1790
sg78
I1869
sg79
I1770
sg80
I1917
sg81
I1445
sg82
I1909
sg83
I1233
sg84
I1076
sg85
I1757
sg86
I1285
sg87
I1894
sg88
I1721
sg89
I1875
sg90
I1398
sg91
I240
sg92
I1911
sg93
I1922
sg94
I1893
sg95
I1930
sg96
I1607
sg97
I1871
sg98
I1549
sg99
I1405
sg100
I1713
sg101
I1894
sg102
I1493
ssg71
(dp170
g2
I5090
sg4
I2299
sg5
I8519
sg6
I1692
sg7
I9057
sg8
I8968
sg9
I9068
sg10
I3103
sg11
I4058
sg12
I8868
sg13
I8425
sg14
I8511
sg15
I1688
sg16
I1544
sg17
I8770
sg18
I8651
sg19
I5450
sg20
I1518
sg21
I7392
sg22
I1279
sg23
I8123
sg24
I8338
sg25
I8419
sg26
I9052
sg27
I5069
sg28
I7983
sg29
I6824
sg30
I6290
sg31
I1692
sg32
I7776
sg33
I8000
sg34
I9123
sg35
I7464
sg36
I7653
sg37
I4041
sg38
I1520
sg39
I7000
sg40
I567
sg41
I4436
sg42
I4179
sg43
I1732
sg44
I8281
sg45
I7889
sg46
I9077
sg47
I9112
sg48
I7596
sg49
I8893
sg50
I9016
sg51
I9065
sg52
I8905
sg53
I6526
sg54
I1696
sg55
I8435
sg56
I4827
sg57
I9002
sg58
I7666
sg59
I1677
sg60
I9015
sg61
I8353
sg62
I8907
sg63
I8958
sg64
I6595
sg65
I7957
sg66
I9125
sg67
I7952
sg68
I1676
sg69
I8529
sg70
I1416
sg71
I14152
sg72
I1939
sg73
I3367
sg74
I1857
sg75
I8729
sg76
I7793
sg77
I8877
sg78
I8564
sg79
I8712
sg80
I9040
sg81
I6413
sg82
I8814
sg83
I1776
sg84
I3250
sg85
I8108
sg86
I1994
sg87
I8882
sg88
I8966
sg89
I7615
sg90
I6870
sg91
I238
sg92
I8823
sg93
I8613
sg94
I7968
sg95
I8764
sg96
I8921
sg97
I8798
sg98
I7781
sg99
I11067
sg100
I8808
sg101
I8999
sg102
I6430
ssg72
(dp171
g2
I1668
sg4
I2140
sg5
I2709
sg6
I1957
sg7
I3257
sg8
I3269
sg9
I3062
sg10
I1991
sg11
I2315
sg12
I3261
sg13
I3285
sg14
I3154
sg15
I1953
sg16
I2081
sg17
I3223
sg18
I3398
sg19
I1631
sg20
I1868
sg21
I2109
sg22
I1626
sg23
I3026
sg24
I2715
sg25
I3055
sg26
I3173
sg27
I1812
sg28
I3057
sg29
I1702
sg30
I2432
sg31
I1956
sg32
I2799
sg33
I2883
sg34
I3254
sg35
I3321
sg36
I2612
sg37
I1836
sg38
I2025
sg39
I2260
sg40
I274
sg41
I1145
sg42
I2404
sg43
I3480
sg44
I3355
sg45
I3323
sg46
I3168
sg47
I3470
sg48
I2731
sg49
I3369
sg50
I3258
sg51
I3187
sg52
I2978
sg53
I2298
sg54
I1980
sg55
I2157
sg56
I1530
sg57
I3297
sg58
I2673
sg59
I2514
sg60
I3238
sg61
I2973
sg62
I3013
sg63
I3206
sg64
I3051
sg65
I2870
sg66
I3429
sg67
I2748
sg68
I2008
sg69
I3216
sg70
I1250
sg71
I1939
sg72
I4974
sg73
I1928
sg74
I2643
sg75
I3452
sg76
I2311
sg77
I3084
sg78
I3082
sg79
I3039
sg80
I3342
sg81
I1959
sg82
I3268
sg83
I2870
sg84
I1305
sg85
I3119
sg86
I3399
sg87
I3092
sg88
I3254
sg89
I2217
sg90
I2293
sg91
I226
sg92
I3193
sg93
I3155
sg94
I3084
sg95
I3222
sg96
I2794
sg97
I3125
sg98
I3032
sg99
I1791
sg100
I3281
sg101
I3088
sg102
I2326
ssg73
(dp172
g2
I2720
sg4
I2372
sg5
I4305
sg6
I1984
sg7
I4630
sg8
I4688
sg9
I4538
sg10
I2924
sg11
I3310
sg12
I4334
sg13
I4607
sg14
I4494
sg15
I1966
sg16
I1732
sg17
I4626
sg18
I4450
sg19
I2673
sg20
I1693
sg21
I4205
sg22
I1528
sg23
I4481
sg24
I4558
sg25
I4648
sg26
I4763
sg27
I2556
sg28
I4437
sg29
I4174
sg30
I2780
sg31
I1983
sg32
I3615
sg33
I4368
sg34
I4758
sg35
I4267
sg36
I3696
sg37
I3331
sg38
I1715
sg39
I3236
sg40
I331
sg41
I2711
sg42
I4591
sg43
I1820
sg44
I4657
sg45
I4336
sg46
I4751
sg47
I4820
sg48
I3386
sg49
I4654
sg50
I4645
sg51
I4775
sg52
I4738
sg53
I3337
sg54
I1964
sg55
I4451
sg56
I4433
sg57
I4668
sg58
I4062
sg59
I1838
sg60
I4750
sg61
I4452
sg62
I4651
sg63
I4678
sg64
I4402
sg65
I4109
sg66
I4766
sg67
I3480
sg68
I1908
sg69
I4603
sg70
I1630
sg71
I3367
sg72
I1928
sg73
I5920
sg74
I1853
sg75
I4383
sg76
I3546
sg77
I4346
sg78
I4611
sg79
I4587
sg80
I4653
sg81
I3606
sg82
I4641
sg83
I1947
sg84
I2608
sg85
I4643
sg86
I2103
sg87
I4589
sg88
I4651
sg89
I4517
sg90
I3495
sg91
I252
sg92
I4670
sg93
I4585
sg94
I4659
sg95
I4680
sg96
I3913
sg97
I4750
sg98
I4058
sg99
I3350
sg100
I4692
sg101
I4659
sg102
I3585
ssg74
(dp173
g2
I1503
sg4
I2015
sg5
I2142
sg6
I2125
sg7
I2629
sg8
I2637
sg9
I2335
sg10
I1721
sg11
I1586
sg12
I2593
sg13
I2579
sg14
I2502
sg15
I2151
sg16
I1687
sg17
I2619
sg18
I2617
sg19
I1464
sg20
I1936
sg21
I1931
sg22
I1705
sg23
I2362
sg24
I2243
sg25
I2451
sg26
I2477
sg27
I1212
sg28
I2532
sg29
I1574
sg30
I1801
sg31
I2125
sg32
I2137
sg33
I2211
sg34
I2473
sg35
I2579
sg36
I2029
sg37
I1714
sg38
I2107
sg39
I1638
sg40
I274
sg41
I1006
sg42
I1783
sg43
I2163
sg44
I2628
sg45
I2627
sg46
I2462
sg47
I2661
sg48
I1971
sg49
I2622
sg50
I2617
sg51
I2482
sg52
I2437
sg53
I1702
sg54
I2146
sg55
I2103
sg56
I1518
sg57
I2579
sg58
I2019
sg59
I2304
sg60
I2622
sg61
I2342
sg62
I2314
sg63
I2624
sg64
I2533
sg65
I2213
sg66
I2634
sg67
I2090
sg68
I2145
sg69
I2597
sg70
I1226
sg71
I1857
sg72
I2643
sg73
I1853
sg74
I3771
sg75
I2666
sg76
I2147
sg77
I2314
sg78
I2551
sg79
I2439
sg80
I2558
sg81
I1571
sg82
I2587
sg83
I2077
sg84
I1229
sg85
I2501
sg86
I2450
sg87
I2414
sg88
I2631
sg89
I2139
sg90
I1695
sg91
I261
sg92
I2603
sg93
I2432
sg94
I2473
sg95
I2456
sg96
I2239
sg97
I2450
sg98
I2311
sg99
I1733
sg100
I2616
sg101
I2473
sg102
I1860
ssg75
(dp174
g2
I4483
sg4
I2860
sg5
I23522
sg6
I2120
sg7
I27494
sg8
I27269
sg9
I34255
sg10
I3286
sg11
I16573
sg12
I27390
sg13
I23839
sg14
I23582
sg15
I2131
sg16
I1989
sg17
I26895
sg18
I28952
sg19
I5613
sg20
I2150
sg21
I17990
sg22
I1615
sg23
I20114
sg24
I21622
sg25
I22291
sg26
I36259
sg27
I4617
sg28
I20474
sg29
I20649
sg30
I7654
sg31
I2118
sg32
I7648
sg33
I25273
sg34
I36954
sg35
I25457
sg36
I8358
sg37
I3821
sg38
I1871
sg39
I6511
sg40
I747
sg41
I3626
sg42
I8533
sg43
I2558
sg44
I28405
sg45
I26464
sg46
I36348
sg47
I37840
sg48
I27706
sg49
I29506
sg50
I27517
sg51
I35283
sg52
I30470
sg53
I6289
sg54
I2133
sg55
I22114
sg56
I8119
sg57
I29341
sg58
I23935
sg59
I2349
sg60
I31701
sg61
I22362
sg62
I27346
sg63
I26893
sg64
I21269
sg65
I24609
sg66
I36462
sg67
I7761
sg68
I2084
sg69
I24261
sg70
I1763
sg71
I8729
sg72
I3452
sg73
I4383
sg74
I2666
sg75
I39343
sg76
I7396
sg77
I26382
sg78
I25231
sg79
I25513
sg80
I37628
sg81
I6310
sg82
I28626
sg83
I3005
sg84
I2750
sg85
I22856
sg86
I2965
sg87
I26413
sg88
I26114
sg89
I18931
sg90
I7108
sg91
I281
sg92
I27053
sg93
I27175
sg94
I26761
sg95
I27475
sg96
I9500
sg97
I29745
sg98
I26334
sg99
I7547
sg100
I26384
sg101
I28654
sg102
I7551
ssg76
(dp175
g2
I4798
sg4
I2587
sg5
I6955
sg6
I1997
sg7
I7525
sg8
I7395
sg9
I7617
sg10
I3433
sg11
I3689
sg12
I7399
sg13
I7166
sg14
I7270
sg15
I1995
sg16
I1739
sg17
I7343
sg18
I7143
sg19
I5999
sg20
I1678
sg21
I6772
sg22
I1515
sg23
I6760
sg24
I7126
sg25
I7174
sg26
I7579
sg27
I4582
sg28
I7227
sg29
I6386
sg30
I6909
sg31
I1996
sg32
I8555
sg33
I6442
sg34
I7622
sg35
I5888
sg36
I6526
sg37
I4193
sg38
I1804
sg39
I6441
sg40
I418
sg41
I4076
sg42
I4363
sg43
I1974
sg44
I6633
sg45
I6363
sg46
I7580
sg47
I7617
sg48
I6119
sg49
I7501
sg50
I7516
sg51
I7584
sg52
I7524
sg53
I6489
sg54
I2007
sg55
I6946
sg56
I5254
sg57
I7499
sg58
I5807
sg59
I2014
sg60
I7545
sg61
I7177
sg62
I7322
sg63
I7511
sg64
I4984
sg65
I6620
sg66
I7600
sg67
I9171
sg68
I1970
sg69
I7230
sg70
I1430
sg71
I7793
sg72
I2311
sg73
I3546
sg74
I2147
sg75
I7396
sg76
I10847
sg77
I7420
sg78
I7212
sg79
I7209
sg80
I7527
sg81
I5800
sg82
I7317
sg83
I2112
sg84
I3053
sg85
I7171
sg86
I2407
sg87
I7437
sg88
I7459
sg89
I6977
sg90
I6180
sg91
I237
sg92
I7365
sg93
I7226
sg94
I6214
sg95
I7364
sg96
I6879
sg97
I7449
sg98
I6560
sg99
I6536
sg100
I7272
sg101
I7534
sg102
I6708
ssg77
(dp176
g2
I4514
sg4
I2697
sg5
I22175
sg6
I1979
sg7
I24956
sg8
I24869
sg9
I28134
sg10
I3329
sg11
I15961
sg12
I24865
sg13
I21827
sg14
I22544
sg15
I2007
sg16
I1890
sg17
I24590
sg18
I25635
sg19
I5636
sg20
I2048
sg21
I17375
sg22
I1520
sg23
I19556
sg24
I20494
sg25
I20959
sg26
I27641
sg27
I4715
sg28
I19768
sg29
I18332
sg30
I7039
sg31
I1979
sg32
I7735
sg33
I23461
sg34
I27967
sg35
I22697
sg36
I8255
sg37
I3839
sg38
I1795
sg39
I6645
sg40
I685
sg41
I4041
sg42
I8690
sg43
I2378
sg44
I24937
sg45
I23687
sg46
I27628
sg47
I27924
sg48
I24595
sg49
I26258
sg50
I25002
sg51
I26069
sg52
I24752
sg53
I6227
sg54
I2001
sg55
I20720
sg56
I7859
sg57
I26002
sg58
I22199
sg59
I2059
sg60
I25015
sg61
I21083
sg62
I24823
sg63
I24557
sg64
I19744
sg65
I22901
sg66
I27278
sg67
I7822
sg68
I1951
sg69
I22340
sg70
I1790
sg71
I8877
sg72
I3084
sg73
I4346
sg74
I2314
sg75
I26382
sg76
I7420
sg77
I36173
sg78
I23305
sg79
I23939
sg80
I27867
sg81
I6411
sg82
I25384
sg83
I2955
sg84
I2898
sg85
I21509
sg86
I2622
sg87
I24657
sg88
I24139
sg89
I18322
sg90
I6979
sg91
I282
sg92
I24688
sg93
I24691
sg94
I23969
sg95
I24997
sg96
I9413
sg97
I26465
sg98
I23677
sg99
I7743
sg100
I24513
sg101
I25687
sg102
I7358
ssg78
(dp177
g2
I4701
sg4
I2730
sg5
I20920
sg6
I2124
sg7
I25020
sg8
I24904
sg9
I25932
sg10
I3446
sg11
I15989
sg12
I27606
sg13
I21464
sg14
I24524
sg15
I2129
sg16
I1954
sg17
I24597
sg18
I26032
sg19
I5600
sg20
I2111
sg21
I17309
sg22
I1597
sg23
I19557
sg24
I20294
sg25
I20223
sg26
I26367
sg27
I4700
sg28
I19907
sg29
I20126
sg30
I7143
sg31
I2122
sg32
I7501
sg33
I23047
sg34
I26661
sg35
I23362
sg36
I8041
sg37
I3990
sg38
I1821
sg39
I6517
sg40
I749
sg41
I4127
sg42
I8613
sg43
I2387
sg44
I25266
sg45
I24205
sg46
I26358
sg47
I26923
sg48
I24628
sg49
I26747
sg50
I24985
sg51
I25097
sg52
I23671
sg53
I6200
sg54
I2133
sg55
I20920
sg56
I8054
sg57
I26284
sg58
I21775
sg59
I2195
sg60
I24246
sg61
I19988
sg62
I24950
sg63
I24606
sg64
I23595
sg65
I22478
sg66
I26821
sg67
I7531
sg68
I2058
sg69
I21806
sg70
I1869
sg71
I8564
sg72
I3082
sg73
I4611
sg74
I2551
sg75
I25231
sg76
I7212
sg77
I23305
sg78
I35158
sg79
I23391
sg80
I26677
sg81
I6508
sg82
I28232
sg83
I2867
sg84
I3059
sg85
I21181
sg86
I2788
sg87
I24083
sg88
I24126
sg89
I18100
sg90
I7059
sg91
I275
sg92
I27543
sg93
I24106
sg94
I24220
sg95
I24763
sg96
I9293
sg97
I25355
sg98
I24061
sg99
I7556
sg100
I24552
sg101
I25756
sg102
I7428
ssg79
(dp178
g2
I4617
sg4
I2863
sg5
I22515
sg6
I2104
sg7
I24917
sg8
I24853
sg9
I26515
sg10
I3468
sg11
I19528
sg12
I24747
sg13
I23129
sg14
I22199
sg15
I2112
sg16
I1965
sg17
I24605
sg18
I25706
sg19
I5594
sg20
I2124
sg21
I17417
sg22
I1612
sg23
I19636
sg24
I21702
sg25
I21992
sg26
I26867
sg27
I4720
sg28
I23741
sg29
I18843
sg30
I7205
sg31
I2104
sg32
I7582
sg33
I23101
sg34
I27229
sg35
I23245
sg36
I8334
sg37
I3915
sg38
I1870
sg39
I6652
sg40
I713
sg41
I4045
sg42
I8507
sg43
I2287
sg44
I25286
sg45
I24010
sg46
I26904
sg47
I27263
sg48
I24392
sg49
I26523
sg50
I25171
sg51
I25759
sg52
I24206
sg53
I6239
sg54
I2110
sg55
I20425
sg56
I7897
sg57
I26106
sg58
I21791
sg59
I2249
sg60
I24800
sg61
I21709
sg62
I24775
sg63
I24656
sg64
I20059
sg65
I22444
sg66
I27010
sg67
I7746
sg68
I2057
sg69
I23586
sg70
I1770
sg71
I8712
sg72
I3039
sg73
I4587
sg74
I2439
sg75
I25513
sg76
I7209
sg77
I23939
sg78
I23391
sg79
I35590
sg80
I27190
sg81
I6510
sg82
I25385
sg83
I2848
sg84
I2915
sg85
I22357
sg86
I2797
sg87
I24104
sg88
I24011
sg89
I18975
sg90
I7222
sg91
I278
sg92
I24695
sg93
I29461
sg94
I23980
sg95
I26616
sg96
I9390
sg97
I25862
sg98
I23949
sg99
I7521
sg100
I24414
sg101
I25581
sg102
I7365
ssg80
(dp179
g2
I4681
sg4
I2869
sg5
I24437
sg6
I2083
sg7
I29308
sg8
I29072
sg9
I37547
sg10
I3434
sg11
I18389
sg12
I29063
sg13
I24384
sg14
I25052
sg15
I2092
sg16
I1957
sg17
I28710
sg18
I30822
sg19
I5770
sg20
I2131
sg21
I18763
sg22
I1553
sg23
I21451
sg24
I22824
sg25
I23034
sg26
I39617
sg27
I4808
sg28
I21897
sg29
I21822
sg30
I7539
sg31
I2081
sg32
I7847
sg33
I27189
sg34
I41301
sg35
I27275
sg36
I8547
sg37
I4011
sg38
I1813
sg39
I6715
sg40
I751
sg41
I4161
sg42
I9241
sg43
I2489
sg44
I30374
sg45
I28415
sg46
I39633
sg47
I42260
sg48
I29698
sg49
I31554
sg50
I29415
sg51
I36324
sg52
I33567
sg53
I6426
sg54
I2096
sg55
I23634
sg56
I8448
sg57
I31094
sg58
I25772
sg59
I2241
sg60
I32911
sg61
I23560
sg62
I29194
sg63
I28780
sg64
I22608
sg65
I26426
sg66
I39802
sg67
I7916
sg68
I2016
sg69
I25198
sg70
I1917
sg71
I9040
sg72
I3342
sg73
I4653
sg74
I2558
sg75
I37628
sg76
I7527
sg77
I27867
sg78
I26677
sg79
I27190
sg80
I43158
sg81
I6615
sg82
I30330
sg83
I2962
sg84
I3038
sg85
I24064
sg86
I2884
sg87
I28307
sg88
I27592
sg89
I20041
sg90
I7276
sg91
I278
sg92
I28752
sg93
I28855
sg94
I28613
sg95
I29329
sg96
I9813
sg97
I31525
sg98
I28190
sg99
I7877
sg100
I28188
sg101
I30541
sg102
I7854
ssg81
(dp180
g2
I4500
sg4
I2304
sg5
I6194
sg6
I1766
sg7
I6574
sg8
I6523
sg9
I6629
sg10
I3239
sg11
I3902
sg12
I6506
sg13
I6414
sg14
I6391
sg15
I1737
sg16
I1654
sg17
I6274
sg18
I6323
sg19
I4368
sg20
I1630
sg21
I5778
sg22
I1350
sg23
I6166
sg24
I6459
sg25
I6367
sg26
I6695
sg27
I4539
sg28
I6388
sg29
I5460
sg30
I5382
sg31
I1763
sg32
I6410
sg33
I5912
sg34
I6711
sg35
I5617
sg36
I6289
sg37
I4525
sg38
I1505
sg39
I5965
sg40
I560
sg41
I4050
sg42
I3850
sg43
I1845
sg44
I6123
sg45
I5940
sg46
I6685
sg47
I6738
sg48
I5287
sg49
I6566
sg50
I6555
sg51
I6698
sg52
I6658
sg53
I5973
sg54
I1755
sg55
I5872
sg56
I4057
sg57
I6559
sg58
I5354
sg59
I1665
sg60
I6649
sg61
I6267
sg62
I6572
sg63
I6604
sg64
I5389
sg65
I5858
sg66
I6712
sg67
I6425
sg68
I1744
sg69
I6404
sg70
I1445
sg71
I6413
sg72
I1959
sg73
I3606
sg74
I1571
sg75
I6310
sg76
I5800
sg77
I6411
sg78
I6508
sg79
I6510
sg80
I6615
sg81
I9975
sg82
I6506
sg83
I1991
sg84
I3686
sg85
I6017
sg86
I2075
sg87
I6559
sg88
I6617
sg89
I5878
sg90
I6135
sg91
I223
sg92
I6294
sg93
I6421
sg94
I5927
sg95
I6538
sg96
I6896
sg97
I6590
sg98
I5657
sg99
I5595
sg100
I6639
sg101
I6612
sg102
I7214
ssg82
(dp181
g2
I4637
sg4
I2812
sg5
I22887
sg6
I2093
sg7
I28104
sg8
I27853
sg9
I28500
sg10
I3445
sg11
I17386
sg12
I32039
sg13
I23011
sg14
I26653
sg15
I2102
sg16
I1948
sg17
I27294
sg18
I29300
sg19
I5661
sg20
I2076
sg21
I18192
sg22
I1595
sg23
I20888
sg24
I21451
sg25
I21864
sg26
I29972
sg27
I4750
sg28
I20628
sg29
I22064
sg30
I7298
sg31
I2092
sg32
I7657
sg33
I25922
sg34
I30193
sg35
I26096
sg36
I8362
sg37
I3996
sg38
I1857
sg39
I6597
sg40
I738
sg41
I4141
sg42
I9067
sg43
I2496
sg44
I28725
sg45
I26889
sg46
I29969
sg47
I30435
sg48
I28311
sg49
I30101
sg50
I28019
sg51
I28587
sg52
I26445
sg53
I6268
sg54
I2104
sg55
I22371
sg56
I8242
sg57
I29703
sg58
I24561
sg59
I2222
sg60
I26826
sg61
I21679
sg62
I27691
sg63
I27387
sg64
I23871
sg65
I25245
sg66
I29748
sg67
I7741
sg68
I2031
sg69
I23479
sg70
I1909
sg71
I8814
sg72
I3268
sg73
I4641
sg74
I2587
sg75
I28626
sg76
I7317
sg77
I25384
sg78
I28232
sg79
I25385
sg80
I30330
sg81
I6506
sg82
I37494
sg83
I2964
sg84
I3050
sg85
I22665
sg86
I2836
sg87
I26856
sg88
I26354
sg89
I18974
sg90
I7103
sg91
I276
sg92
I30824
sg93
I26439
sg94
I27440
sg95
I27089
sg96
I9500
sg97
I28322
sg98
I26703
sg99
I7708
sg100
I26867
sg101
I29190
sg102
I7476
ssg83
(dp182
g2
I1515
sg4
I2033
sg5
I2472
sg6
I1818
sg7
I2942
sg8
I2948
sg9
I2988
sg10
I2007
sg11
I2418
sg12
I2918
sg13
I2885
sg14
I2944
sg15
I1838
sg16
I2008
sg17
I2797
sg18
I2896
sg19
I1466
sg20
I1756
sg21
I2114
sg22
I1546
sg23
I2805
sg24
I2740
sg25
I2802
sg26
I3006
sg27
I1661
sg28
I2899
sg29
I1836
sg30
I2113
sg31
I1817
sg32
I2552
sg33
I2777
sg34
I3011
sg35
I2899
sg36
I2543
sg37
I1752
sg38
I1852
sg39
I2301
sg40
I313
sg41
I1229
sg42
I2656
sg43
I2327
sg44
I2955
sg45
I2967
sg46
I2946
sg47
I3011
sg48
I2255
sg49
I2976
sg50
I2937
sg51
I3006
sg52
I2948
sg53
I2148
sg54
I1831
sg55
I2107
sg56
I1809
sg57
I2905
sg58
I2476
sg59
I2155
sg60
I3000
sg61
I2815
sg62
I2841
sg63
I2929
sg64
I2847
sg65
I2669
sg66
I3007
sg67
I2542
sg68
I1829
sg69
I2868
sg70
I1233
sg71
I1776
sg72
I2870
sg73
I1947
sg74
I2077
sg75
I3005
sg76
I2112
sg77
I2955
sg78
I2867
sg79
I2848
sg80
I2962
sg81
I1991
sg82
I2964
sg83
I4595
sg84
I1275
sg85
I2685
sg86
I2352
sg87
I2913
sg88
I2944
sg89
I2377
sg90
I2256
sg91
I256
sg92
I2902
sg93
I2930
sg94
I2905
sg95
I2959
sg96
I2585
sg97
I2945
sg98
I2617
sg99
I1663
sg100
I2965
sg101
I2908
sg102
I2309
ssg84
(dp183
g2
I2649
sg4
I1801
sg5
I2998
sg6
I1245
sg7
I3050
sg8
I3103
sg9
I3052
sg10
I2294
sg11
I2186
sg12
I3038
sg13
I2948
sg14
I3002
sg15
I1219
sg16
I1055
sg17
I3044
sg18
I2865
sg19
I3080
sg20
I906
sg21
I2703
sg22
I812
sg23
I2913
sg24
I2791
sg25
I2927
sg26
I3122
sg27
I2885
sg28
I2958
sg29
I2275
sg30
I3014
sg31
I1241
sg32
I2991
sg33
I3015
sg34
I3128
sg35
I3061
sg36
I3143
sg37
I3838
sg38
I962
sg39
I2953
sg40
I315
sg41
I3118
sg42
I2241
sg43
I1241
sg44
I3055
sg45
I2850
sg46
I3105
sg47
I3128
sg48
I2062
sg49
I3054
sg50
I3055
sg51
I3124
sg52
I3122
sg53
I3046
sg54
I1229
sg55
I2830
sg56
I2021
sg57
I3059
sg58
I3017
sg59
I1139
sg60
I3110
sg61
I2956
sg62
I3039
sg63
I3065
sg64
I3006
sg65
I2712
sg66
I3123
sg67
I3125
sg68
I1217
sg69
I2925
sg70
I1076
sg71
I3250
sg72
I1305
sg73
I2608
sg74
I1229
sg75
I2750
sg76
I3053
sg77
I2898
sg78
I3059
sg79
I2915
sg80
I3038
sg81
I3686
sg82
I3050
sg83
I1275
sg84
I4260
sg85
I2971
sg86
I1387
sg87
I3008
sg88
I3078
sg89
I2769
sg90
I3078
sg91
I258
sg92
I3029
sg93
I3040
sg94
I3054
sg95
I3096
sg96
I3717
sg97
I3093
sg98
I2950
sg99
I3289
sg100
I3077
sg101
I3057
sg102
I3565
ssg85
(dp184
g2
I4597
sg4
I2812
sg5
I26051
sg6
I2085
sg7
I22467
sg8
I22321
sg9
I23251
sg10
I3387
sg11
I15295
sg12
I22117
sg13
I24204
sg14
I20276
sg15
I2099
sg16
I1950
sg17
I22233
sg18
I22782
sg19
I5351
sg20
I2138
sg21
I15807
sg22
I1608
sg23
I18029
sg24
I19618
sg25
I23832
sg26
I23817
sg27
I4508
sg28
I18604
sg29
I16995
sg30
I7115
sg31
I2085
sg32
I7404
sg33
I20601
sg34
I24020
sg35
I20139
sg36
I7399
sg37
I3925
sg38
I1872
sg39
I6094
sg40
I507
sg41
I3749
sg42
I8095
sg43
I2396
sg44
I22014
sg45
I21243
sg46
I23788
sg47
I24243
sg48
I21541
sg49
I23174
sg50
I22505
sg51
I22604
sg52
I21495
sg53
I6104
sg54
I2105
sg55
I19071
sg56
I7929
sg57
I23228
sg58
I19378
sg59
I2256
sg60
I21890
sg61
I20796
sg62
I22079
sg63
I22079
sg64
I17854
sg65
I20363
sg66
I23834
sg67
I7482
sg68
I2050
sg69
I24684
sg70
I1757
sg71
I8108
sg72
I3119
sg73
I4643
sg74
I2501
sg75
I22856
sg76
I7171
sg77
I21509
sg78
I21181
sg79
I22357
sg80
I24064
sg81
I6017
sg82
I22665
sg83
I2685
sg84
I2971
sg85
I31572
sg86
I2824
sg87
I21668
sg88
I21462
sg89
I16903
sg90
I6536
sg91
I277
sg92
I22065
sg93
I23501
sg94
I21054
sg95
I24036
sg96
I8331
sg97
I22885
sg98
I21265
sg99
I6985
sg100
I21725
sg101
I22630
sg102
I6868
ssg86
(dp185
g2
I1600
sg4
I2133
sg5
I2377
sg6
I2223
sg7
I2911
sg8
I2917
sg9
I2566
sg10
I1857
sg11
I2084
sg12
I2839
sg13
I2867
sg14
I2746
sg15
I2229
sg16
I1927
sg17
I2887
sg18
I2943
sg19
I1694
sg20
I1851
sg21
I2217
sg22
I1582
sg23
I2723
sg24
I2629
sg25
I2770
sg26
I2695
sg27
I1593
sg28
I2811
sg29
I1865
sg30
I2230
sg31
I2219
sg32
I2613
sg33
I2449
sg34
I2765
sg35
I2851
sg36
I2468
sg37
I1913
sg38
I2014
sg39
I2100
sg40
I283
sg41
I1363
sg42
I2199
sg43
I2496
sg44
I2906
sg45
I2882
sg46
I2684
sg47
I2973
sg48
I2319
sg49
I2924
sg50
I2904
sg51
I2704
sg52
I2694
sg53
I2120
sg54
I2254
sg55
I2158
sg56
I1759
sg57
I2828
sg58
I2238
sg59
I2462
sg60
I2913
sg61
I2670
sg62
I2541
sg63
I2885
sg64
I2721
sg65
I2442
sg66
I2941
sg67
I2560
sg68
I2043
sg69
I2890
sg70
I1285
sg71
I1994
sg72
I3399
sg73
I2103
sg74
I2450
sg75
I2965
sg76
I2407
sg77
I2622
sg78
I2788
sg79
I2797
sg80
I2884
sg81
I2075
sg82
I2836
sg83
I2352
sg84
I1387
sg85
I2824
sg86
I4350
sg87
I2660
sg88
I2917
sg89
I2405
sg90
I2195
sg91
I225
sg92
I2740
sg93
I2767
sg94
I2645
sg95
I2821
sg96
I2627
sg97
I2713
sg98
I2601
sg99
I1846
sg100
I2920
sg101
I2647
sg102
I2436
ssg87
(dp186
g2
I4585
sg4
I2681
sg5
I22088
sg6
I2101
sg7
I27605
sg8
I27488
sg9
I27283
sg10
I3424
sg11
I16197
sg12
I26010
sg13
I22133
sg14
I22513
sg15
I2104
sg16
I1953
sg17
I27438
sg18
I29205
sg19
I5542
sg20
I2127
sg21
I18192
sg22
I1602
sg23
I20764
sg24
I21411
sg25
I21353
sg26
I28052
sg27
I4738
sg28
I20262
sg29
I19331
sg30
I7218
sg31
I2099
sg32
I7757
sg33
I31679
sg34
I28325
sg35
I24837
sg36
I8348
sg37
I3989
sg38
I1853
sg39
I6657
sg40
I750
sg41
I4109
sg42
I8921
sg43
I2487
sg44
I27576
sg45
I25932
sg46
I28038
sg47
I28382
sg48
I28081
sg49
I29037
sg50
I27743
sg51
I26460
sg52
I25170
sg53
I6373
sg54
I2111
sg55
I22042
sg56
I8135
sg57
I28590
sg58
I30119
sg59
I2056
sg60
I25260
sg61
I21625
sg62
I28479
sg63
I27290
sg64
I20186
sg65
I30968
sg66
I27861
sg67
I7834
sg68
I2062
sg69
I22670
sg70
I1894
sg71
I8882
sg72
I3092
sg73
I4589
sg74
I2414
sg75
I26413
sg76
I7437
sg77
I24657
sg78
I24083
sg79
I24104
sg80
I28307
sg81
I6559
sg82
I26856
sg83
I2913
sg84
I3008
sg85
I21668
sg86
I2660
sg87
I35290
sg88
I26332
sg89
I19190
sg90
I7251
sg91
I276
sg92
I26115
sg93
I25283
sg94
I28247
sg95
I25673
sg96
I9558
sg97
I26973
sg98
I26052
sg99
I7728
sg100
I26800
sg101
I30161
sg102
I7587
ssg88
(dp187
g2
I4758
sg4
I2915
sg5
I21705
sg6
I2107
sg7
I30647
sg8
I30377
sg9
I26760
sg10
I3507
sg11
I15649
sg12
I25099
sg13
I22120
sg14
I23439
sg15
I2115
sg16
I1966
sg17
I26518
sg18
I27771
sg19
I5719
sg20
I2126
sg21
I18774
sg22
I1610
sg23
I20841
sg24
I20670
sg25
I21271
sg26
I27387
sg27
I4815
sg28
I19932
sg29
I19052
sg30
I7531
sg31
I2103
sg32
I7760
sg33
I25279
sg34
I27652
sg35
I24810
sg36
I8461
sg37
I4042
sg38
I1865
sg39
I6679
sg40
I741
sg41
I4190
sg42
I9009
sg43
I2431
sg44
I27151
sg45
I25632
sg46
I27368
sg47
I27844
sg48
I26522
sg49
I28614
sg50
I30446
sg51
I26046
sg52
I24814
sg53
I6409
sg54
I2117
sg55
I21858
sg56
I8266
sg57
I28308
sg58
I23924
sg59
I2316
sg60
I25945
sg61
I21426
sg62
I26169
sg63
I29193
sg64
I20424
sg65
I24726
sg66
I27421
sg67
I7843
sg68
I2070
sg69
I22460
sg70
I1721
sg71
I8966
sg72
I3254
sg73
I4651
sg74
I2631
sg75
I26114
sg76
I7459
sg77
I24139
sg78
I24126
sg79
I24011
sg80
I27592
sg81
I6617
sg82
I26354
sg83
I2944
sg84
I3078
sg85
I21462
sg86
I2917
sg87
I26332
sg88
I33823
sg89
I18440
sg90
I7269
sg91
I273
sg92
I25637
sg93
I24821
sg94
I26109
sg95
I25361
sg96
I9623
sg97
I26206
sg98
I25406
sg99
I7758
sg100
I28867
sg101
I27831
sg102
I7632
ssg89
(dp188
g2
I4011
sg4
I2641
sg5
I17438
sg6
I2072
sg7
I18977
sg8
I18896
sg9
I19573
sg10
I3161
sg11
I13006
sg12
I18632
sg13
I18039
sg14
I16754
sg15
I2060
sg16
I1784
sg17
I19185
sg18
I19108
sg19
I5113
sg20
I2085
sg21
I15325
sg22
I1599
sg23
I15836
sg24
I20388
sg25
I17156
sg26
I19884
sg27
I3919
sg28
I17653
sg29
I15326
sg30
I6174
sg31
I2071
sg32
I6621
sg33
I17903
sg34
I20072
sg35
I17211
sg36
I6940
sg37
I3706
sg38
I1835
sg39
I5814
sg40
I686
sg41
I3906
sg42
I7740
sg43
I1892
sg44
I18368
sg45
I17779
sg46
I19906
sg47
I20098
sg48
I17912
sg49
I19643
sg50
I19050
sg51
I19092
sg52
I18504
sg53
I5309
sg54
I2069
sg55
I16095
sg56
I7643
sg57
I19425
sg58
I17008
sg59
I2051
sg60
I18501
sg61
I17038
sg62
I19071
sg63
I19057
sg64
I14916
sg65
I17760
sg66
I20040
sg67
I6641
sg68
I2040
sg69
I18217
sg70
I1875
sg71
I7615
sg72
I2217
sg73
I4517
sg74
I2139
sg75
I18931
sg76
I6977
sg77
I18322
sg78
I18100
sg79
I18975
sg80
I20041
sg81
I5878
sg82
I18974
sg83
I2377
sg84
I2769
sg85
I16903
sg86
I2405
sg87
I19190
sg88
I18440
sg89
I27141
sg90
I6354
sg91
I283
sg92
I19117
sg93
I19609
sg94
I17901
sg95
I19872
sg96
I7565
sg97
I19208
sg98
I17903
sg99
I6505
sg100
I18700
sg101
I19409
sg102
I6532
ssg90
(dp189
g2
I4350
sg4
I2278
sg5
I6938
sg6
I1691
sg7
I7291
sg8
I7216
sg9
I7202
sg10
I3457
sg11
I4794
sg12
I7134
sg13
I7067
sg14
I6751
sg15
I1691
sg16
I1813
sg17
I7052
sg18
I6951
sg19
I4549
sg20
I1418
sg21
I6078
sg22
I1337
sg23
I6874
sg24
I6918
sg25
I6971
sg26
I7397
sg27
I5089
sg28
I6999
sg29
I5748
sg30
I5658
sg31
I1689
sg32
I7081
sg33
I6431
sg34
I7390
sg35
I6639
sg36
I8197
sg37
I4076
sg38
I1525
sg39
I6954
sg40
I644
sg41
I3939
sg42
I4162
sg43
I1862
sg44
I7212
sg45
I6787
sg46
I7368
sg47
I7425
sg48
I5913
sg49
I7230
sg50
I7328
sg51
I7397
sg52
I7232
sg53
I6312
sg54
I1700
sg55
I6293
sg56
I3950
sg57
I7255
sg58
I6488
sg59
I1732
sg60
I7322
sg61
I6942
sg62
I7259
sg63
I7285
sg64
I6054
sg65
I6393
sg66
I7365
sg67
I6899
sg68
I1668
sg69
I6955
sg70
I1398
sg71
I6870
sg72
I2293
sg73
I3495
sg74
I1695
sg75
I7108
sg76
I6180
sg77
I6979
sg78
I7059
sg79
I7222
sg80
I7276
sg81
I6135
sg82
I7103
sg83
I2256
sg84
I3078
sg85
I6536
sg86
I2195
sg87
I7251
sg88
I7269
sg89
I6354
sg90
I10398
sg91
I281
sg92
I7109
sg93
I7061
sg94
I6943
sg95
I7186
sg96
I7037
sg97
I7219
sg98
I6166
sg99
I6485
sg100
I7286
sg101
I7286
sg102
I5776
ssg91
(dp190
g2
I228
sg4
I240
sg5
I273
sg6
I239
sg7
I271
sg8
I271
sg9
I273
sg10
I232
sg11
I284
sg12
I271
sg13
I280
sg14
I278
sg15
I235
sg16
I229
sg17
I271
sg18
I279
sg19
I237
sg20
I241
sg21
I180
sg22
I262
sg23
I278
sg24
I285
sg25
I271
sg26
I278
sg27
I235
sg28
I279
sg29
I15
sg30
I272
sg31
I239
sg32
I235
sg33
I275
sg34
I277
sg35
I274
sg36
I262
sg37
I242
sg38
I229
sg39
I266
sg40
I257
sg41
I236
sg42
I261
sg43
I221
sg44
I273
sg45
I271
sg46
I278
sg47
I276
sg48
I277
sg49
I278
sg50
I272
sg51
I278
sg52
I278
sg53
I237
sg54
I227
sg55
I169
sg56
I261
sg57
I275
sg58
I275
sg59
I253
sg60
I277
sg61
I268
sg62
I277
sg63
I274
sg64
I277
sg65
I275
sg66
I280
sg67
I233
sg68
I227
sg69
I277
sg70
I240
sg71
I238
sg72
I226
sg73
I252
sg74
I261
sg75
I281
sg76
I237
sg77
I282
sg78
I275
sg79
I278
sg80
I278
sg81
I223
sg82
I276
sg83
I256
sg84
I258
sg85
I277
sg86
I225
sg87
I276
sg88
I273
sg89
I283
sg90
I281
sg91
I382
sg92
I270
sg93
I276
sg94
I281
sg95
I275
sg96
I266
sg97
I277
sg98
I270
sg99
I239
sg100
I271
sg101
I281
sg102
I205
ssg92
(dp191
g2
I4334
sg4
I2810
sg5
I22120
sg6
I2096
sg7
I27023
sg8
I26945
sg9
I27545
sg10
I3450
sg11
I16604
sg12
I29704
sg13
I22384
sg14
I25621
sg15
I2105
sg16
I1939
sg17
I26473
sg18
I27930
sg19
I5584
sg20
I2120
sg21
I17802
sg22
I1589
sg23
I20424
sg24
I21037
sg25
I21254
sg26
I28296
sg27
I4645
sg28
I20436
sg29
I21662
sg30
I7255
sg31
I2095
sg32
I7586
sg33
I24874
sg34
I28644
sg35
I24899
sg36
I8061
sg37
I3974
sg38
I1856
sg39
I6586
sg40
I725
sg41
I4133
sg42
I8926
sg43
I2423
sg44
I27312
sg45
I25884
sg46
I28348
sg47
I28938
sg48
I26694
sg49
I28801
sg50
I27156
sg51
I26857
sg52
I25285
sg53
I6120
sg54
I2104
sg55
I22196
sg56
I8220
sg57
I28325
sg58
I23525
sg59
I2244
sg60
I25573
sg61
I21158
sg62
I26668
sg63
I26682
sg64
I23108
sg65
I24282
sg66
I28574
sg67
I7554
sg68
I2048
sg69
I22938
sg70
I1911
sg71
I8823
sg72
I3193
sg73
I4670
sg74
I2603
sg75
I27053
sg76
I7365
sg77
I24688
sg78
I27543
sg79
I24695
sg80
I28752
sg81
I6294
sg82
I30824
sg83
I2902
sg84
I3029
sg85
I22065
sg86
I2740
sg87
I26115
sg88
I25637
sg89
I19117
sg90
I7109
sg91
I270
sg92
I36379
sg93
I25700
sg94
I26197
sg95
I26345
sg96
I9332
sg97
I27131
sg98
I25750
sg99
I7685
sg100
I26187
sg101
I27894
sg102
I7287
ssg93
(dp192
g2
I4685
sg4
I2776
sg5
I23738
sg6
I2114
sg7
I26094
sg8
I25991
sg9
I27841
sg10
I3457
sg11
I19865
sg12
I25572
sg13
I23905
sg14
I22837
sg15
I2115
sg16
I1946
sg17
I25666
sg18
I26863
sg19
I5582
sg20
I2132
sg21
I17567
sg22
I1606
sg23
I19866
sg24
I22265
sg25
I22457
sg26
I28571
sg27
I4780
sg28
I23402
sg29
I19447
sg30
I7183
sg31
I2112
sg32
I7631
sg33
I24260
sg34
I28933
sg35
I23963
sg36
I8152
sg37
I3896
sg38
I1873
sg39
I6563
sg40
I717
sg41
I4038
sg42
I8664
sg43
I2499
sg44
I26438
sg45
I24991
sg46
I28678
sg47
I29056
sg48
I25552
sg49
I27604
sg50
I26288
sg51
I27106
sg52
I25605
sg53
I6231
sg54
I2123
sg55
I21389
sg56
I7934
sg57
I27229
sg58
I23012
sg59
I2175
sg60
I25628
sg61
I22419
sg62
I25691
sg63
I25690
sg64
I20626
sg65
I23706
sg66
I28662
sg67
I7741
sg68
I2064
sg69
I24312
sg70
I1922
sg71
I8613
sg72
I3155
sg73
I4585
sg74
I2432
sg75
I27175
sg76
I7226
sg77
I24691
sg78
I24106
sg79
I29461
sg80
I28855
sg81
I6421
sg82
I26439
sg83
I2930
sg84
I3040
sg85
I23501
sg86
I2767
sg87
I25283
sg88
I24821
sg89
I19609
sg90
I7061
sg91
I276
sg92
I25700
sg93
I37588
sg94
I25102
sg95
I28275
sg96
I9349
sg97
I27050
sg98
I24822
sg99
I7455
sg100
I25238
sg101
I26692
sg102
I7618
ssg94
(dp193
g2
I4664
sg4
I2686
sg5
I21441
sg6
I2107
sg7
I27422
sg8
I27131
sg9
I27176
sg10
I3468
sg11
I17019
sg12
I25864
sg13
I21524
sg14
I22534
sg15
I2110
sg16
I1959
sg17
I27184
sg18
I30120
sg19
I5689
sg20
I2132
sg21
I17385
sg22
I1615
sg23
I20231
sg24
I20381
sg25
I20534
sg26
I28326
sg27
I4458
sg28
I19228
sg29
I19763
sg30
I6003
sg31
I2106
sg32
I6689
sg33
I27365
sg34
I28743
sg35
I27132
sg36
I8065
sg37
I4031
sg38
I1867
sg39
I5587
sg40
I748
sg41
I4200
sg42
I8976
sg43
I2465
sg44
I29408
sg45
I27622
sg46
I28417
sg47
I28799
sg48
I29006
sg49
I29528
sg50
I27608
sg51
I26776
sg52
I25069
sg53
I5684
sg54
I2118
sg55
I21912
sg56
I7034
sg57
I29254
sg58
I26807
sg59
I2079
sg60
I25153
sg61
I20634
sg62
I28652
sg63
I26921
sg64
I21780
sg65
I26453
sg66
I28442
sg67
I6580
sg68
I2061
sg69
I22102
sg70
I1893
sg71
I7968
sg72
I3084
sg73
I4659
sg74
I2473
sg75
I26761
sg76
I6214
sg77
I23969
sg78
I24220
sg79
I23980
sg80
I28613
sg81
I5927
sg82
I27440
sg83
I2905
sg84
I3054
sg85
I21054
sg86
I2645
sg87
I28247
sg88
I26109
sg89
I17901
sg90
I6943
sg91
I281
sg92
I26197
sg93
I25102
sg94
I35052
sg95
I25905
sg96
I9146
sg97
I26884
sg98
I26408
sg99
I7534
sg100
I26952
sg101
I34430
sg102
I6620
ssg95
(dp194
g2
I4678
sg4
I2785
sg5
I24330
sg6
I2107
sg7
I26800
sg8
I26476
sg9
I28111
sg10
I3466
sg11
I18192
sg12
I26363
sg13
I24437
sg14
I23233
sg15
I2115
sg16
I1983
sg17
I26375
sg18
I27779
sg19
I5659
sg20
I2134
sg21
I17939
sg22
I1597
sg23
I20260
sg24
I22441
sg25
I23040
sg26
I28973
sg27
I4784
sg28
I21738
sg29
I20094
sg30
I7309
sg31
I2105
sg32
I7702
sg33
I24681
sg34
I29405
sg35
I24845
sg36
I8378
sg37
I4067
sg38
I1868
sg39
I6594
sg40
I652
sg41
I4140
sg42
I8823
sg43
I2507
sg44
I27102
sg45
I25761
sg46
I29089
sg47
I29527
sg48
I26485
sg49
I28720
sg50
I26986
sg51
I27549
sg52
I26028
sg53
I6382
sg54
I2117
sg55
I21484
sg56
I8094
sg57
I28064
sg58
I23414
sg59
I2188
sg60
I26150
sg61
I23089
sg62
I26520
sg63
I26336
sg64
I20913
sg65
I24215
sg66
I29348
sg67
I7807
sg68
I2059
sg69
I25127
sg70
I1930
sg71
I8764
sg72
I3222
sg73
I4680
sg74
I2456
sg75
I27475
sg76
I7364
sg77
I24997
sg78
I24763
sg79
I26616
sg80
I29329
sg81
I6538
sg82
I27089
sg83
I2959
sg84
I3096
sg85
I24036
sg86
I2821
sg87
I25673
sg88
I25361
sg89
I19872
sg90
I7186
sg91
I275
sg92
I26345
sg93
I28275
sg94
I25905
sg95
I37335
sg96
I9512
sg97
I27811
sg98
I25518
sg99
I7648
sg100
I25771
sg101
I27535
sg102
I7595
ssg96
(dp195
g2
I4785
sg4
I2662
sg5
I8636
sg6
I1994
sg7
I9685
sg8
I9665
sg9
I9640
sg10
I3741
sg11
I5356
sg12
I9570
sg13
I8885
sg14
I9055
sg15
I1972
sg16
I1966
sg17
I9342
sg18
I9436
sg19
I4985
sg20
I1735
sg21
I7451
sg22
I1524
sg23
I8496
sg24
I8307
sg25
I8600
sg26
I9848
sg27
I4732
sg28
I8671
sg29
I6172
sg30
I6200
sg31
I1990
sg32
I7484
sg33
I8937
sg34
I9901
sg35
I8770
sg36
I7586
sg37
I4612
sg38
I1783
sg39
I6154
sg40
I642
sg41
I4163
sg42
I5504
sg43
I2267
sg44
I9352
sg45
I9003
sg46
I9841
sg47
I9945
sg48
I8244
sg49
I9560
sg50
I9694
sg51
I9853
sg52
I9674
sg53
I6548
sg54
I1981
sg55
I8029
sg56
I4627
sg57
I9573
sg58
I8725
sg59
I2032
sg60
I9830
sg61
I8959
sg62
I9509
sg63
I9656
sg64
I7959
sg65
I8583
sg66
I9905
sg67
I7530
sg68
I1965
sg69
I8885
sg70
I1607
sg71
I8921
sg72
I2794
sg73
I3913
sg74
I2239
sg75
I9500
sg76
I6879
sg77
I9413
sg78
I9293
sg79
I9390
sg80
I9813
sg81
I6896
sg82
I9500
sg83
I2585
sg84
I3717
sg85
I8331
sg86
I2627
sg87
I9558
sg88
I9623
sg89
I7565
sg90
I7037
sg91
I266
sg92
I9332
sg93
I9349
sg94
I9146
sg95
I9512
sg96
I14567
sg97
I9523
sg98
I8349
sg99
I7964
sg100
I9703
sg101
I9611
sg102
I6873
ssg97
(dp196
g2
I4706
sg4
I2755
sg5
I23463
sg6
I2106
sg7
I27822
sg8
I27798
sg9
I30203
sg10
I3457
sg11
I17421
sg12
I27197
sg13
I23416
sg14
I23855
sg15
I2110
sg16
I1968
sg17
I27105
sg18
I28855
sg19
I5639
sg20
I2151
sg21
I18119
sg22
I1604
sg23
I20514
sg24
I21742
sg25
I22131
sg26
I31349
sg27
I4765
sg28
I21081
sg29
I20848
sg30
I7312
sg31
I2104
sg32
I7742
sg33
I25749
sg34
I31536
sg35
I25728
sg36
I8358
sg37
I4062
sg38
I1878
sg39
I6661
sg40
I691
sg41
I4169
sg42
I8875
sg43
I2522
sg44
I28147
sg45
I26591
sg46
I31406
sg47
I31778
sg48
I27575
sg49
I29584
sg50
I27715
sg51
I29783
sg52
I27610
sg53
I6393
sg54
I2114
sg55
I22279
sg56
I8222
sg57
I29301
sg58
I24463
sg59
I2143
sg60
I27809
sg61
I22263
sg62
I27503
sg63
I27052
sg64
I21398
sg65
I25151
sg66
I30982
sg67
I7829
sg68
I2074
sg69
I23941
sg70
I1871
sg71
I8798
sg72
I3125
sg73
I4750
sg74
I2450
sg75
I29745
sg76
I7449
sg77
I26465
sg78
I25355
sg79
I25862
sg80
I31525
sg81
I6590
sg82
I28322
sg83
I2945
sg84
I3093
sg85
I22885
sg86
I2713
sg87
I26973
sg88
I26206
sg89
I19208
sg90
I7219
sg91
I277
sg92
I27131
sg93
I27050
sg94
I26884
sg95
I27811
sg96
I9523
sg97
I37998
sg98
I26404
sg99
I7615
sg100
I26528
sg101
I28726
sg102
I7699
ssg98
(dp197
g2
I3963
sg4
I2546
sg5
I21327
sg6
I1782
sg7
I26907
sg8
I26669
sg9
I26598
sg10
I2944
sg11
I16533
sg12
I25687
sg13
I21638
sg14
I22350
sg15
I1787
sg16
I1688
sg17
I30494
sg18
I28445
sg19
I5366
sg20
I1811
sg21
I17214
sg22
I1316
sg23
I20094
sg24
I20390
sg25
I20378
sg26
I27766
sg27
I4531
sg28
I19436
sg29
I19396
sg30
I7274
sg31
I1780
sg32
I6628
sg33
I24858
sg34
I28145
sg35
I25913
sg36
I7311
sg37
I3298
sg38
I1547
sg39
I5832
sg40
I736
sg41
I3843
sg42
I7973
sg43
I2250
sg44
I27787
sg45
I31413
sg46
I27835
sg47
I28325
sg48
I27445
sg49
I29403
sg50
I27056
sg51
I26126
sg52
I24792
sg53
I5518
sg54
I1792
sg55
I21300
sg56
I7273
sg57
I29536
sg58
I23983
sg59
I2018
sg60
I25000
sg61
I20217
sg62
I26679
sg63
I26690
sg64
I20552
sg65
I25192
sg66
I28084
sg67
I6956
sg68
I1749
sg69
I22256
sg70
I1549
sg71
I7781
sg72
I3032
sg73
I4058
sg74
I2311
sg75
I26334
sg76
I6560
sg77
I23677
sg78
I24061
sg79
I23949
sg80
I28190
sg81
I5657
sg82
I26703
sg83
I2617
sg84
I2950
sg85
I21265
sg86
I2601
sg87
I26052
sg88
I25406
sg89
I17903
sg90
I6166
sg91
I270
sg92
I25750
sg93
I24822
sg94
I26408
sg95
I25518
sg96
I8349
sg97
I26404
sg98
I35222
sg99
I6628
sg100
I26209
sg101
I28136
sg102
I6688
ssg99
(dp198
g2
I4627
sg4
I2148
sg5
I7387
sg6
I1676
sg7
I7882
sg8
I7753
sg9
I7893
sg10
I3063
sg11
I4245
sg12
I7719
sg13
I7317
sg14
I7424
sg15
I1673
sg16
I1513
sg17
I7615
sg18
I7482
sg19
I5050
sg20
I1370
sg21
I6408
sg22
I1254
sg23
I7023
sg24
I7184
sg25
I7274
sg26
I7899
sg27
I4539
sg28
I6949
sg29
I5852
sg30
I4589
sg31
I1676
sg32
I6504
sg33
I7139
sg34
I7963
sg35
I7106
sg36
I6324
sg37
I4081
sg38
I1449
sg39
I5935
sg40
I567
sg41
I4198
sg42
I3572
sg43
I1712
sg44
I7741
sg45
I7357
sg46
I7899
sg47
I7969
sg48
I6451
sg49
I7727
sg50
I7836
sg51
I7907
sg52
I7802
sg53
I5816
sg54
I1681
sg55
I7136
sg56
I3689
sg57
I7797
sg58
I7133
sg59
I1536
sg60
I7849
sg61
I7305
sg62
I7812
sg63
I7832
sg64
I6673
sg65
I6844
sg66
I7944
sg67
I6309
sg68
I1660
sg69
I7378
sg70
I1405
sg71
I11067
sg72
I1791
sg73
I3350
sg74
I1733
sg75
I7547
sg76
I6536
sg77
I7743
sg78
I7556
sg79
I7521
sg80
I7877
sg81
I5595
sg82
I7708
sg83
I1663
sg84
I3289
sg85
I6985
sg86
I1846
sg87
I7728
sg88
I7758
sg89
I6505
sg90
I6485
sg91
I239
sg92
I7685
sg93
I7455
sg94
I7534
sg95
I7648
sg96
I7964
sg97
I7615
sg98
I6628
sg99
I12254
sg100
I7889
sg101
I7859
sg102
I5158
ssg100
(dp199
g2
I4669
sg4
I2909
sg5
I21868
sg6
I2110
sg7
I30430
sg8
I30036
sg9
I27057
sg10
I3496
sg11
I16366
sg12
I25766
sg13
I22287
sg14
I22865
sg15
I2116
sg16
I1971
sg17
I27360
sg18
I28417
sg19
I5707
sg20
I2126
sg21
I18402
sg22
I1599
sg23
I21307
sg24
I20820
sg25
I21485
sg26
I27768
sg27
I4755
sg28
I20129
sg29
I19630
sg30
I7316
sg31
I2108
sg32
I7633
sg33
I25823
sg34
I28147
sg35
I25464
sg36
I8310
sg37
I4037
sg38
I1865
sg39
I6520
sg40
I735
sg41
I4209
sg42
I8996
sg43
I2457
sg44
I28098
sg45
I26671
sg46
I27813
sg47
I28435
sg48
I27191
sg49
I29225
sg50
I30510
sg51
I26173
sg52
I25190
sg53
I6344
sg54
I2118
sg55
I22183
sg56
I8034
sg57
I28787
sg58
I24741
sg59
I2314
sg60
I26054
sg61
I21089
sg62
I26830
sg63
I29653
sg64
I20882
sg65
I25154
sg66
I27944
sg67
I7629
sg68
I2068
sg69
I22919
sg70
I1713
sg71
I8808
sg72
I3281
sg73
I4692
sg74
I2616
sg75
I26384
sg76
I7272
sg77
I24513
sg78
I24552
sg79
I24414
sg80
I28188
sg81
I6639
sg82
I26867
sg83
I2965
sg84
I3077
sg85
I21725
sg86
I2920
sg87
I26800
sg88
I28867
sg89
I18700
sg90
I7286
sg91
I271
sg92
I26187
sg93
I25238
sg94
I26952
sg95
I25771
sg96
I9703
sg97
I26528
sg98
I26209
sg99
I7889
sg100
I34910
sg101
I28315
sg102
I7500
ssg101
(dp200
g2
I4670
sg4
I2684
sg5
I23002
sg6
I2106
sg7
I29393
sg8
I28978
sg9
I28986
sg10
I3478
sg11
I17076
sg12
I27535
sg13
I23085
sg14
I24198
sg15
I2109
sg16
I1959
sg17
I28884
sg18
I31982
sg19
I5691
sg20
I2132
sg21
I18972
sg22
I1615
sg23
I21425
sg24
I22046
sg25
I22108
sg26
I30187
sg27
I4808
sg28
I20758
sg29
I21267
sg30
I7403
sg31
I2105
sg32
I7853
sg33
I28998
sg34
I30652
sg35
I27047
sg36
I8411
sg37
I4032
sg38
I1868
sg39
I6702
sg40
I748
sg41
I4203
sg42
I9096
sg43
I2467
sg44
I29827
sg45
I28109
sg46
I30304
sg47
I30708
sg48
I30972
sg49
I31315
sg50
I29259
sg51
I28633
sg52
I26831
sg53
I6432
sg54
I2117
sg55
I23507
sg56
I8346
sg57
I30880
sg58
I27494
sg59
I2079
sg60
I26942
sg61
I22247
sg62
I30625
sg63
I28594
sg64
I21848
sg65
I28301
sg66
I30147
sg67
I7919
sg68
I2047
sg69
I23712
sg70
I1894
sg71
I8999
sg72
I3088
sg73
I4659
sg74
I2473
sg75
I28654
sg76
I7534
sg77
I25687
sg78
I25756
sg79
I25581
sg80
I30541
sg81
I6612
sg82
I29190
sg83
I2908
sg84
I3057
sg85
I22630
sg86
I2647
sg87
I30161
sg88
I27831
sg89
I19409
sg90
I7286
sg91
I281
sg92
I27894
sg93
I26692
sg94
I34430
sg95
I27535
sg96
I9611
sg97
I28726
sg98
I28136
sg99
I7859
sg100
I28315
sg101
I37207
sg102
I7697
ssg102
(dp201
g2
I4831
sg4
I2493
sg5
I6607
sg6
I1959
sg7
I7769
sg8
I7792
sg9
I7838
sg10
I3595
sg11
I3862
sg12
I7524
sg13
I7079
sg14
I7101
sg15
I1955
sg16
I1831
sg17
I7404
sg18
I7328
sg19
I4708
sg20
I1658
sg21
I6226
sg22
I1503
sg23
I6499
sg24
I7217
sg25
I6724
sg26
I7896
sg27
I4593
sg28
I7267
sg29
I6024
sg30
I5909
sg31
I1957
sg32
I6887
sg33
I6761
sg34
I7943
sg35
I6287
sg36
I6957
sg37
I4553
sg38
I1724
sg39
I6423
sg40
I399
sg41
I3515
sg42
I4190
sg43
I2058
sg44
I6989
sg45
I6702
sg46
I7881
sg47
I7944
sg48
I6239
sg49
I7772
sg50
I7733
sg51
I7541
sg52
I7428
sg53
I5952
sg54
I1968
sg55
I6298
sg56
I4676
sg57
I7701
sg58
I6177
sg59
I1905
sg60
I7536
sg61
I6976
sg62
I7497
sg63
I7720
sg64
I5429
sg65
I6817
sg66
I7922
sg67
I7151
sg68
I1937
sg69
I7291
sg70
I1493
sg71
I6430
sg72
I2326
sg73
I3585
sg74
I1860
sg75
I7551
sg76
I6708
sg77
I7358
sg78
I7428
sg79
I7365
sg80
I7854
sg81
I7214
sg82
I7476
sg83
I2309
sg84
I3565
sg85
I6868
sg86
I2436
sg87
I7587
sg88
I7632
sg89
I6532
sg90
I5776
sg91
I205
sg92
I7287
sg93
I7618
sg94
I6620
sg95
I7595
sg96
I6873
sg97
I7699
sg98
I6688
sg99
I5158
sg100
I7500
sg101
I7697
sg102
I12205
ss.